CCS PCM C Compiler, Version 5.025, 5967               29-mar-21 08:37

               Filename:   Z:\home\kolgreen\Dropbox\Projekty\elektronika\akwarium\v3.0\uC_watchdog\aqua3.lst

               ROM used:   7170 words (88%)
                           Largest free fragment is 975
               RAM used:   54 (15%) at main() level
                           86 (23%) worst case
               Stack used: 7 locations (6 in main + 1 for interrupts)
               Stack size: 8

*
0000:  MOVLW  19
0001:  MOVWF  0A
0002:  GOTO   138
0003:  NOP
0004:  MOVWF  7F
0005:  SWAPF  03,W
0006:  CLRF   03
0007:  MOVWF  21
0008:  MOVF   0A,W
0009:  MOVWF  20
000A:  CLRF   0A
000B:  MOVF   04,W
000C:  MOVWF  22
000D:  MOVF   77,W
000E:  MOVWF  23
000F:  MOVF   78,W
0010:  MOVWF  24
0011:  MOVF   79,W
0012:  MOVWF  25
0013:  MOVF   7A,W
0014:  MOVWF  26
0015:  BSF    03.6
0016:  MOVF   0D,W
0017:  BCF    03.6
0018:  MOVWF  27
0019:  BSF    03.6
001A:  MOVF   0F,W
001B:  BCF    03.6
001C:  MOVWF  28
001D:  BSF    03.6
001E:  MOVF   0C,W
001F:  BCF    03.6
0020:  MOVWF  29
0021:  BSF    03.6
0022:  MOVF   0E,W
0023:  BCF    03.6
0024:  MOVWF  2A
0025:  BCF    03.7
0026:  BCF    03.5
0027:  BTFSS  0B.5
0028:  GOTO   02B
0029:  BTFSC  0B.2
002A:  GOTO   04C
002B:  MOVF   22,W
002C:  MOVWF  04
002D:  MOVF   23,W
002E:  MOVWF  77
002F:  MOVF   24,W
0030:  MOVWF  78
0031:  MOVF   25,W
0032:  MOVWF  79
0033:  MOVF   26,W
0034:  MOVWF  7A
0035:  MOVF   27,W
0036:  BSF    03.6
0037:  MOVWF  0D
0038:  BCF    03.6
0039:  MOVF   28,W
003A:  BSF    03.6
003B:  MOVWF  0F
003C:  BCF    03.6
003D:  MOVF   29,W
003E:  BSF    03.6
003F:  MOVWF  0C
0040:  BCF    03.6
0041:  MOVF   2A,W
0042:  BSF    03.6
0043:  MOVWF  0E
0044:  BCF    03.6
0045:  MOVF   20,W
0046:  MOVWF  0A
0047:  SWAPF  21,W
0048:  MOVWF  03
0049:  SWAPF  7F,F
004A:  SWAPF  7F,W
004B:  RETFIE
004C:  BCF    0A.3
004D:  BCF    0A.4
004E:  GOTO   14C
.................... #include <aqua3.h> 
.................... #include <16F877A.h> 
.................... //////////// Standard Header file for the PIC16F877A device //////////////// 
.................... /////////////////////////////////////////////////////////////////////////// 
.................... ////        (C) Copyright 1996, 2013 Custom Computer Services          //// 
.................... //// This source code may only be used by licensed users of the CCS C  //// 
.................... //// compiler.  This source code may only be distributed to other      //// 
.................... //// licensed users of the CCS C compiler.  No other use, reproduction //// 
.................... //// or distribution is permitted without written permission.          //// 
.................... //// Derivative programs created using this software in object code    //// 
.................... //// form are not restricted in any way.                               //// 
.................... /////////////////////////////////////////////////////////////////////////// 
.................... #device PIC16F877A 
004F:  BCF    0A.0
0050:  BCF    0A.1
0051:  BCF    0A.2
0052:  ADDWF  02,F
0053:  RETLW  28
0054:  RETLW  0C
0055:  RETLW  01
0056:  RETLW  06
0057:  BCF    0A.0
0058:  BCF    0A.1
0059:  BCF    0A.2
005A:  ADDWF  02,F
005B:  RETLW  0E
005C:  RETLW  11
005D:  RETLW  11
005E:  RETLW  15
005F:  RETLW  0E
0060:  RETLW  0E
0061:  RETLW  0E
0062:  RETLW  04
0063:  RETLW  14
0064:  RETLW  0A
0065:  RETLW  00
0066:  RETLW  0E
0067:  RETLW  0B
0068:  RETLW  0E
0069:  RETLW  1A
006A:  RETLW  0E
006B:  RETLW  00
006C:  RETLW  08
006D:  RETLW  14
006E:  RETLW  08
006F:  RETLW  03
0070:  RETLW  04
0071:  RETLW  04
0072:  RETLW  03
0073:  RETLW  04
0074:  RETLW  14
0075:  RETLW  04
0076:  RETLW  14
0077:  RETLW  04
0078:  RETLW  0E
0079:  RETLW  0E
007A:  RETLW  04
007B:  RETLW  00
007C:  RETLW  0A
007D:  RETLW  15
007E:  RETLW  00
007F:  RETLW  0A
0080:  RETLW  15
0081:  RETLW  00
0082:  RETLW  00
0083:  RETLW  00
0084:  RETLW  00
0085:  RETLW  00
0086:  RETLW  11
0087:  RETLW  0A
0088:  RETLW  0E
0089:  RETLW  00
008A:  RETLW  00
008B:  RETLW  00
008C:  RETLW  0E
008D:  RETLW  15
008E:  RETLW  17
008F:  RETLW  11
0090:  RETLW  0E
0091:  RETLW  00
0092:  RETLW  00
0093:  RETLW  08
0094:  RETLW  02
0095:  RETLW  08
0096:  RETLW  00
0097:  RETLW  04
0098:  RETLW  00
0099:  RETLW  1F
009A:  RETLW  00
009B:  RETLW  00
009C:  RETLW  00
009D:  RETLW  00
009E:  RETLW  00
009F:  RETLW  00
00A0:  RETLW  00
00A1:  RETLW  00
00A2:  RETLW  00
00A3:  DATA 20,10
00A4:  DATA 20,10
00A5:  DATA 20,10
00A6:  DATA 00,00
00A7:  DATA 3C,00
00A8:  DATA EF,35
00A9:  DATA 00,01
00AA:  DATA 3E,00
00AB:  DATA 0C,00
00AC:  DATA 55,3A
00AD:  DATA 72,3D
00AE:  DATA F9,36
00AF:  DATA 75,35
00B0:  DATA A0,12
00B1:  DATA 75,10
00B2:  DATA 00,00
00B3:  DATA 0C,00
00B4:  DATA C7,37
00B5:  DATA 64,3D
00B6:  DATA 69,37
00B7:  DATA 61,10
00B8:  DATA 25,18
00B9:  DATA 32,32
00BA:  DATA 20,10
00BB:  DATA 00,00
00BC:  DATA 0C,00
00BD:  DATA CD,34
00BE:  DATA EE,3A
00BF:  DATA F4,30
00C0:  DATA A0,12
00C1:  DATA 30,19
00C2:  DATA 64,10
00C3:  DATA 20,00
00C4:  DATA 0C,00
00C5:  DATA D3,32
00C6:  DATA EB,3A
00C7:  DATA 6E,32
00C8:  DATA A0,12
00C9:  DATA 30,19
00CA:  DATA 64,10
00CB:  DATA 20,00
00CC:  DATA 8C,27
00CD:  DATA F0,3A
00CE:  DATA F3,31
00CF:  DATA A0,36
00D0:  DATA 65,37
00D1:  DATA 75,00
00D2:  DATA 0C,00
00D3:  DATA 0C,2A
00D4:  DATA E5,36
00D5:  DATA F0,32
00D6:  DATA F2,30
00D7:  DATA F4,3A
00D8:  DATA F2,30
00D9:  DATA 00,01
00DA:  DATA 0C,00
00DB:  DATA 8C,2B
00DC:  DATA 6C,17
00DD:  DATA EF,39
00DE:  DATA F7,34
00DF:  DATA 65,3A
00E0:  DATA EC,32
00E1:  DATA EE,34
00E2:  DATA 61,00
00E3:  DATA 8C,2A
00E4:  DATA 73,3A
00E5:  DATA E1,3B
00E6:  DATA E9,37
00E7:  DATA EE,37
00E8:  DATA A0,12
00E9:  DATA 30,19
00EA:  DATA 64,1D
00EB:  DATA 30,18
00EC:  DATA 00,01
00ED:  DATA 0C,00
00EE:  DATA 8C,2B
00EF:  DATA 79,36
00F0:  DATA AE,37
00F1:  DATA F3,3B
00F2:  DATA E9,32
00F3:  DATA 74,36
00F4:  DATA 65,37
00F5:  DATA E9,30
00F6:  DATA 00,01
00F7:  DATA 8C,2A
00F8:  DATA 73,3A
00F9:  DATA E1,3B
00FA:  DATA E9,37
00FB:  DATA EE,37
00FC:  DATA A0,12
00FD:  DATA 30,19
00FE:  DATA 64,1D
00FF:  DATA 30,18
0100:  DATA 00,01
0101:  DATA 0C,00
0102:  DATA 0C,27
0103:  DATA 61,38
0104:  DATA EF,3B
0105:  DATA E9,32
0106:  DATA 74,39
0107:  DATA FA,30
0108:  DATA EE,34
0109:  DATA 65,00
010A:  DATA 8C,2A
010B:  DATA F2,3A
010C:  DATA 63,34
010D:  DATA EF,36
010E:  DATA E9,32
010F:  DATA EE,34
0110:  DATA 65,05
0111:  DATA E3,37
0112:  DATA A0,12
0113:  DATA 30,19
0114:  DATA 64,10
0115:  DATA E8,17
0116:  DATA 25,18
0117:  DATA 32,32
0118:  DATA A0,36
0119:  DATA 69,37
011A:  DATA 00,01
011B:  DATA 0C,00
011C:  DATA 8C,25
011D:  DATA 61,39
011E:  DATA ED,34
011F:  DATA 65,37
0120:  DATA E9,32
0121:  DATA 00,01
0122:  DATA 8C,2A
0123:  DATA F2,3A
0124:  DATA 63,34
0125:  DATA EF,36
0126:  DATA E9,32
0127:  DATA EE,34
0128:  DATA 65,05
0129:  DATA E3,37
012A:  DATA A0,12
012B:  DATA 30,19
012C:  DATA 64,10
012D:  DATA E8,17
012E:  DATA 25,18
012F:  DATA 32,32
0130:  DATA A0,39
0131:  DATA 00,01
0132:  DATA 0C,00
0133:  DATA 0C,2D
0134:  DATA E5,33
0135:  DATA 61,39
0136:  DATA 00,01
0137:  DATA 8C,2A
0138:  DATA 73,3A
0139:  DATA E1,3B
013A:  DATA E9,37
013B:  DATA EE,37
013C:  DATA A0,12
013D:  DATA 30,19
013E:  DATA 64,1D
013F:  DATA 25,18
0140:  DATA 32,32
0141:  DATA 00,01
0142:  DATA 0C,00
0143:  DATA 0C,2A
0144:  DATA E5,39
0145:  DATA F4,3A
0146:  DATA 6A,00
0147:  DATA 0C,3A
0148:  DATA E5,39
0149:  DATA 74,1D
014A:  DATA 00,01
014B:  DATA 0C,00
*
0151:  DATA 0C,27
0152:  DATA EF,3B
0153:  DATA E5,22
0154:  DATA EE,32
0155:  DATA F2,33
0156:  DATA E9,32
0157:  DATA AE,37
0158:  DATA F2,33
0159:  DATA 0A,3B
015A:  DATA 33,17
015B:  DATA 34,00
015C:  DATA 8C,2B
015D:  DATA 63,3D
015E:  DATA 79,3A
015F:  DATA 61,37
0160:  DATA E9,32
0161:  DATA 0A,32
0162:  DATA EF,36
0163:  DATA F9,39
0164:  DATA 6C,37
0165:  DATA F9,31
0166:  DATA 68,10
0167:  DATA F5,39
0168:  DATA F4,30
0169:  DATA F7,34
016A:  DATA 65,37
016B:  DATA 00,01
016C:  DATA 0C,2A
016D:  DATA 65,39
016E:  DATA ED,37
016F:  DATA ED,32
0170:  DATA 74,39
0171:  DATA 0A,3D
0172:  DATA E1,34
0173:  DATA EE,39
0174:  DATA F4,30
0175:  DATA EC,37
0176:  DATA F7,30
0177:  DATA EE,3C
0178:  DATA 2E,00
0179:  DATA 0C,28
017A:  DATA 6F,32
017B:  DATA EC,30
017C:  DATA 63,3D
017D:  DATA 0A,3A
017E:  DATA 65,39
017F:  DATA ED,37
0180:  DATA ED,32
0181:  DATA 74,39
0182:  DATA 21,00
*
0362:  MOVF   0B,W
0363:  MOVWF  57
0364:  BCF    0B.7
0365:  BSF    03.5
0366:  BSF    03.6
0367:  BSF    0C.7
0368:  BSF    0C.0
0369:  NOP
036A:  NOP
036B:  BCF    03.5
036C:  BCF    03.6
036D:  BTFSC  57.7
036E:  BSF    0B.7
036F:  BSF    03.6
0370:  MOVF   0C,W
0371:  ANDLW  7F
0372:  BTFSC  03.2
0373:  GOTO   3B6
0374:  BCF    03.6
0375:  MOVWF  57
0376:  BSF    03.6
0377:  MOVF   0D,W
0378:  BCF    03.6
0379:  MOVWF  58
037A:  BSF    03.6
037B:  MOVF   0F,W
037C:  BCF    03.6
037D:  MOVWF  59
037E:  MOVF   57,W
037F:  MOVWF  64
0380:  CALL   33E
0381:  MOVF   58,W
0382:  BSF    03.6
0383:  MOVWF  0D
0384:  BCF    03.6
0385:  MOVF   59,W
0386:  BSF    03.6
0387:  MOVWF  0F
0388:  BCF    03.6
0389:  MOVF   0B,W
038A:  MOVWF  5A
038B:  BCF    0B.7
038C:  BSF    03.5
038D:  BSF    03.6
038E:  BSF    0C.7
038F:  BSF    0C.0
0390:  NOP
0391:  NOP
0392:  BCF    03.5
0393:  BCF    03.6
0394:  BTFSC  5A.7
0395:  BSF    0B.7
0396:  BSF    03.6
0397:  RLF    0C,W
0398:  RLF    0E,W
0399:  ANDLW  7F
039A:  BTFSC  03.2
039B:  GOTO   3B6
039C:  BCF    03.6
039D:  MOVWF  57
039E:  BSF    03.6
039F:  MOVF   0D,W
03A0:  BCF    03.6
03A1:  MOVWF  58
03A2:  BSF    03.6
03A3:  MOVF   0F,W
03A4:  BCF    03.6
03A5:  MOVWF  59
03A6:  MOVF   57,W
03A7:  MOVWF  64
03A8:  CALL   33E
03A9:  MOVF   58,W
03AA:  BSF    03.6
03AB:  MOVWF  0D
03AC:  BCF    03.6
03AD:  MOVF   59,W
03AE:  BSF    03.6
03AF:  MOVWF  0F
03B0:  INCF   0D,F
03B1:  BTFSC  03.2
03B2:  INCF   0F,F
03B3:  BCF    03.6
03B4:  GOTO   362
03B5:  BSF    03.6
03B6:  BCF    03.6
03B7:  RETURN
*
067C:  MOVF   0B,W
067D:  MOVWF  57
067E:  BCF    0B.7
067F:  BSF    03.5
0680:  BSF    03.6
0681:  BSF    0C.7
0682:  BSF    0C.0
0683:  NOP
0684:  NOP
0685:  BCF    03.5
0686:  BCF    03.6
0687:  BTFSC  57.7
0688:  BSF    0B.7
0689:  BTFSC  03.0
068A:  GOTO   6B3
068B:  BSF    03.6
068C:  MOVF   0C,W
068D:  ANDLW  7F
068E:  BCF    03.6
068F:  MOVWF  57
0690:  BSF    03.6
0691:  MOVF   0D,W
0692:  BCF    03.6
0693:  MOVWF  58
0694:  BSF    03.6
0695:  MOVF   0F,W
0696:  BCF    03.6
0697:  MOVWF  59
0698:  MOVF   57,W
0699:  MOVWF  64
069A:  CALL   33E
069B:  MOVF   58,W
069C:  BSF    03.6
069D:  MOVWF  0D
069E:  BCF    03.6
069F:  MOVF   59,W
06A0:  BSF    03.6
06A1:  MOVWF  0F
06A2:  BCF    03.6
06A3:  MOVF   0B,W
06A4:  MOVWF  5A
06A5:  BCF    0B.7
06A6:  BSF    03.5
06A7:  BSF    03.6
06A8:  BSF    0C.7
06A9:  BSF    0C.0
06AA:  NOP
06AB:  NOP
06AC:  BCF    03.5
06AD:  BCF    03.6
06AE:  BTFSC  5A.7
06AF:  BSF    0B.7
06B0:  DECFSZ 56,F
06B1:  GOTO   6B3
06B2:  GOTO   6D2
06B3:  BSF    03.6
06B4:  RLF    0C,W
06B5:  RLF    0E,W
06B6:  ANDLW  7F
06B7:  BCF    03.6
06B8:  MOVWF  57
06B9:  BSF    03.6
06BA:  MOVF   0D,W
06BB:  BCF    03.6
06BC:  MOVWF  58
06BD:  BSF    03.6
06BE:  MOVF   0F,W
06BF:  BCF    03.6
06C0:  MOVWF  59
06C1:  MOVF   57,W
06C2:  MOVWF  64
06C3:  CALL   33E
06C4:  MOVF   58,W
06C5:  BSF    03.6
06C6:  MOVWF  0D
06C7:  BCF    03.6
06C8:  MOVF   59,W
06C9:  BSF    03.6
06CA:  MOVWF  0F
06CB:  INCF   0D,F
06CC:  BTFSC  03.2
06CD:  INCF   0F,F
06CE:  BCF    03.0
06CF:  BCF    03.6
06D0:  DECFSZ 56,F
06D1:  GOTO   67C
06D2:  RETURN
06D3:  MOVLW  20
06D4:  BTFSS  57.4
06D5:  MOVLW  30
06D6:  MOVWF  58
06D7:  MOVF   56,W
06D8:  MOVWF  77
06D9:  BTFSS  77.7
06DA:  GOTO   6E3
06DB:  COMF   77,F
06DC:  INCF   77,F
06DD:  MOVF   77,W
06DE:  MOVWF  56
06DF:  MOVLW  2D
06E0:  MOVWF  58
06E1:  BSF    57.7
06E2:  BSF    57.0
06E3:  MOVF   78,W
06E4:  MOVF   56,W
06E5:  MOVWF  5C
06E6:  MOVLW  64
06E7:  MOVWF  5D
06E8:  MOVF   5D,W
06E9:  CLRF   78
06EA:  SUBWF  5C,W
06EB:  BTFSC  03.0
06EC:  GOTO   6F0
06ED:  MOVF   5C,W
06EE:  MOVWF  77
06EF:  GOTO   6FC
06F0:  CLRF   77
06F1:  MOVLW  08
06F2:  MOVWF  5E
06F3:  RLF    5C,F
06F4:  RLF    77,F
06F5:  MOVF   5D,W
06F6:  SUBWF  77,W
06F7:  BTFSC  03.0
06F8:  MOVWF  77
06F9:  RLF    78,F
06FA:  DECFSZ 5E,F
06FB:  GOTO   6F3
06FC:  MOVF   77,W
06FD:  MOVWF  56
06FE:  MOVLW  30
06FF:  ADDWF  78,W
0700:  MOVWF  59
0701:  MOVF   56,W
0702:  MOVWF  5C
0703:  MOVLW  0A
0704:  MOVWF  5D
0705:  MOVF   5D,W
0706:  CLRF   78
0707:  SUBWF  5C,W
0708:  BTFSC  03.0
0709:  GOTO   70D
070A:  MOVF   5C,W
070B:  MOVWF  77
070C:  GOTO   719
070D:  CLRF   77
070E:  MOVLW  08
070F:  MOVWF  5E
0710:  RLF    5C,F
0711:  RLF    77,F
0712:  MOVF   5D,W
0713:  SUBWF  77,W
0714:  BTFSC  03.0
0715:  MOVWF  77
0716:  RLF    78,F
0717:  DECFSZ 5E,F
0718:  GOTO   710
0719:  MOVLW  30
071A:  ADDWF  77,W
071B:  MOVWF  5B
071C:  MOVLW  30
071D:  ADDWF  78,W
071E:  MOVWF  5A
071F:  MOVF   58,W
0720:  MOVWF  77
0721:  MOVLW  30
0722:  SUBWF  59,W
0723:  BTFSC  03.2
0724:  GOTO   729
0725:  BSF    57.1
0726:  BTFSC  57.7
0727:  BSF    57.2
0728:  GOTO   73D
0729:  BTFSC  57.2
072A:  GOTO   73D
072B:  MOVF   58,W
072C:  MOVWF  59
072D:  BTFSC  57.1
072E:  GOTO   734
072F:  MOVLW  30
0730:  SUBWF  5A,W
0731:  BTFSC  03.2
0732:  GOTO   737
0733:  BSF    57.0
0734:  BTFSC  57.7
0735:  BSF    57.1
0736:  GOTO   73D
0737:  BTFSS  03.2
0738:  BSF    57.0
0739:  BTFSS  03.2
073A:  GOTO   73D
073B:  MOVF   59,W
073C:  MOVWF  5A
073D:  BTFSC  57.2
073E:  GOTO   744
073F:  BTFSC  57.1
0740:  GOTO   747
0741:  BTFSC  57.0
0742:  GOTO   74A
0743:  GOTO   74D
0744:  MOVF   58,W
0745:  MOVWF  64
0746:  CALL   33E
0747:  MOVF   59,W
0748:  MOVWF  64
0749:  CALL   33E
074A:  MOVF   5A,W
074B:  MOVWF  64
074C:  CALL   33E
074D:  MOVF   5B,W
074E:  MOVWF  64
074F:  CALL   33E
0750:  RETURN
*
07E2:  MOVLW  8E
07E3:  MOVWF  77
07E4:  MOVF   54,W
07E5:  MOVWF  78
07E6:  MOVF   53,W
07E7:  MOVWF  79
07E8:  CLRF   7A
07E9:  MOVF   78,F
07EA:  BTFSS  03.2
07EB:  GOTO   7F6
07EC:  MOVF   79,W
07ED:  MOVWF  78
07EE:  CLRF   79
07EF:  MOVLW  08
07F0:  SUBWF  77,F
07F1:  MOVF   78,F
07F2:  BTFSS  03.2
07F3:  GOTO   7F6
07F4:  CLRF   77
07F5:  GOTO   7FE
07F6:  BCF    03.0
07F7:  BTFSC  78.7
07F8:  GOTO   7FD
07F9:  RLF    79,F
07FA:  RLF    78,F
07FB:  DECF   77,F
07FC:  GOTO   7F6
07FD:  BCF    78.7
07FE:  RETURN
*
0926:  CLRF   77
0927:  CLRF   78
0928:  MOVF   57,W
0929:  BCF    03.0
092A:  BTFSC  58.0
092B:  ADDWF  77,F
092C:  RRF    77,F
092D:  RRF    78,F
092E:  BTFSC  58.1
092F:  ADDWF  77,F
0930:  RRF    77,F
0931:  RRF    78,F
0932:  BTFSC  58.2
0933:  ADDWF  77,F
0934:  RRF    77,F
0935:  RRF    78,F
0936:  BTFSC  58.3
0937:  ADDWF  77,F
0938:  RRF    77,F
0939:  RRF    78,F
093A:  BTFSC  58.4
093B:  ADDWF  77,F
093C:  RRF    77,F
093D:  RRF    78,F
093E:  BTFSC  58.5
093F:  ADDWF  77,F
0940:  RRF    77,F
0941:  RRF    78,F
0942:  BTFSC  58.6
0943:  ADDWF  77,F
0944:  RRF    77,F
0945:  RRF    78,F
0946:  BTFSC  58.7
0947:  ADDWF  77,F
0948:  RRF    77,F
0949:  RRF    78,F
094A:  RETURN
*
0C8D:  CLRF   78
0C8E:  CLRF   79
0C8F:  CLRF   77
0C90:  CLRF   7A
0C91:  MOVF   66,W
0C92:  BTFSS  03.2
0C93:  GOTO   497
0C94:  MOVF   65,W
0C95:  BTFSC  03.2
0C96:  GOTO   4B1
0C97:  MOVLW  10
0C98:  MOVWF  67
0C99:  BCF    03.0
0C9A:  RLF    63,F
0C9B:  RLF    64,F
0C9C:  RLF    77,F
0C9D:  RLF    7A,F
0C9E:  MOVF   66,W
0C9F:  SUBWF  7A,W
0CA0:  BTFSS  03.2
0CA1:  GOTO   4A4
0CA2:  MOVF   65,W
0CA3:  SUBWF  77,W
0CA4:  BTFSS  03.0
0CA5:  GOTO   4AD
0CA6:  MOVF   65,W
0CA7:  SUBWF  77,F
0CA8:  BTFSS  03.0
0CA9:  DECF   7A,F
0CAA:  MOVF   66,W
0CAB:  SUBWF  7A,F
0CAC:  BSF    03.0
0CAD:  RLF    78,F
0CAE:  RLF    79,F
0CAF:  DECFSZ 67,F
0CB0:  GOTO   499
*
0CEA:  MOVF   57,W
0CEB:  BTFSC  03.2
0CEC:  GOTO   5AF
0CED:  MOVWF  63
0CEE:  MOVF   5B,W
0CEF:  BTFSC  03.2
0CF0:  GOTO   5AF
0CF1:  SUBWF  63,F
0CF2:  BTFSS  03.0
0CF3:  GOTO   4F9
0CF4:  MOVLW  7F
0CF5:  ADDWF  63,F
0CF6:  BTFSC  03.0
0CF7:  GOTO   5AF
0CF8:  GOTO   4FF
0CF9:  MOVLW  81
0CFA:  SUBWF  63,F
0CFB:  BTFSS  03.0
0CFC:  GOTO   5AF
0CFD:  BTFSC  03.2
0CFE:  GOTO   5AF
0CFF:  MOVF   63,W
0D00:  MOVWF  77
0D01:  CLRF   78
0D02:  CLRF   79
0D03:  CLRF   7A
0D04:  CLRF   62
0D05:  MOVF   58,W
0D06:  MOVWF  61
0D07:  BSF    61.7
0D08:  MOVF   59,W
0D09:  MOVWF  60
0D0A:  MOVF   5A,W
0D0B:  MOVWF  5F
0D0C:  MOVLW  19
0D0D:  MOVWF  63
0D0E:  MOVF   5E,W
0D0F:  SUBWF  5F,F
0D10:  BTFSC  03.0
0D11:  GOTO   522
0D12:  MOVLW  01
0D13:  SUBWF  60,F
0D14:  BTFSC  03.0
0D15:  GOTO   522
0D16:  SUBWF  61,F
0D17:  BTFSC  03.0
0D18:  GOTO   522
0D19:  SUBWF  62,F
0D1A:  BTFSC  03.0
0D1B:  GOTO   522
0D1C:  INCF   62,F
0D1D:  INCF   61,F
0D1E:  INCF   60,F
0D1F:  MOVF   5E,W
0D20:  ADDWF  5F,F
0D21:  GOTO   554
0D22:  MOVF   5D,W
0D23:  SUBWF  60,F
0D24:  BTFSC  03.0
0D25:  GOTO   53D
0D26:  MOVLW  01
0D27:  SUBWF  61,F
0D28:  BTFSC  03.0
0D29:  GOTO   53D
0D2A:  SUBWF  62,F
0D2B:  BTFSC  03.0
0D2C:  GOTO   53D
0D2D:  INCF   62,F
0D2E:  INCF   61,F
0D2F:  MOVF   5D,W
0D30:  ADDWF  60,F
0D31:  MOVF   5E,W
0D32:  ADDWF  5F,F
0D33:  BTFSS  03.0
0D34:  GOTO   554
0D35:  INCF   60,F
0D36:  BTFSS  03.2
0D37:  GOTO   554
0D38:  INCF   61,F
0D39:  BTFSS  03.2
0D3A:  GOTO   554
0D3B:  INCF   62,F
0D3C:  GOTO   554
0D3D:  MOVF   5C,W
0D3E:  IORLW  80
0D3F:  SUBWF  61,F
0D40:  BTFSC  03.0
0D41:  GOTO   553
0D42:  MOVLW  01
0D43:  SUBWF  62,F
0D44:  BTFSC  03.0
0D45:  GOTO   553
0D46:  INCF   62,F
0D47:  MOVF   5C,W
0D48:  IORLW  80
0D49:  ADDWF  61,F
0D4A:  MOVF   5D,W
0D4B:  ADDWF  60,F
0D4C:  BTFSS  03.0
0D4D:  GOTO   531
0D4E:  INCF   61,F
0D4F:  BTFSS  03.2
0D50:  GOTO   531
0D51:  INCF   62,F
0D52:  GOTO   531
0D53:  BSF    7A.0
0D54:  DECFSZ 63,F
0D55:  GOTO   557
0D56:  GOTO   562
0D57:  BCF    03.0
0D58:  RLF    5F,F
0D59:  RLF    60,F
0D5A:  RLF    61,F
0D5B:  RLF    62,F
0D5C:  BCF    03.0
0D5D:  RLF    7A,F
0D5E:  RLF    79,F
0D5F:  RLF    78,F
0D60:  RLF    64,F
0D61:  GOTO   50E
0D62:  BTFSS  64.0
0D63:  GOTO   56A
0D64:  BCF    03.0
0D65:  RRF    78,F
0D66:  RRF    79,F
0D67:  RRF    7A,F
0D68:  RRF    64,F
0D69:  GOTO   56D
0D6A:  DECF   77,F
0D6B:  BTFSC  03.2
0D6C:  GOTO   5AF
0D6D:  BTFSC  64.7
0D6E:  GOTO   596
0D6F:  BCF    03.0
0D70:  RLF    5F,F
0D71:  RLF    60,F
0D72:  RLF    61,F
0D73:  RLF    62,F
0D74:  MOVF   5E,W
0D75:  SUBWF  5F,F
0D76:  BTFSC  03.0
0D77:  GOTO   582
0D78:  MOVLW  01
0D79:  SUBWF  60,F
0D7A:  BTFSC  03.0
0D7B:  GOTO   582
0D7C:  SUBWF  61,F
0D7D:  BTFSC  03.0
0D7E:  GOTO   582
0D7F:  SUBWF  62,F
0D80:  BTFSS  03.0
0D81:  GOTO   5A5
0D82:  MOVF   5D,W
0D83:  SUBWF  60,F
0D84:  BTFSC  03.0
0D85:  GOTO   58D
0D86:  MOVLW  01
0D87:  SUBWF  61,F
0D88:  BTFSC  03.0
0D89:  GOTO   58D
0D8A:  SUBWF  62,F
0D8B:  BTFSS  03.0
0D8C:  GOTO   5A5
0D8D:  MOVF   5C,W
0D8E:  IORLW  80
0D8F:  SUBWF  61,F
0D90:  BTFSC  03.0
0D91:  GOTO   596
0D92:  MOVLW  01
0D93:  SUBWF  62,F
0D94:  BTFSS  03.0
0D95:  GOTO   5A5
0D96:  INCF   7A,F
0D97:  BTFSS  03.2
0D98:  GOTO   5A5
0D99:  INCF   79,F
0D9A:  BTFSS  03.2
0D9B:  GOTO   5A5
0D9C:  INCF   78,F
0D9D:  BTFSS  03.2
0D9E:  GOTO   5A5
0D9F:  INCF   77,F
0DA0:  BTFSC  03.2
0DA1:  GOTO   5AF
0DA2:  RRF    78,F
0DA3:  RRF    79,F
0DA4:  RRF    7A,F
0DA5:  MOVF   58,W
0DA6:  MOVWF  63
0DA7:  MOVF   5C,W
0DA8:  XORWF  63,F
0DA9:  BTFSS  63.7
0DAA:  GOTO   5AD
0DAB:  BSF    78.7
0DAC:  GOTO   5B3
0DAD:  BCF    78.7
0DAE:  GOTO   5B3
0DAF:  CLRF   77
0DB0:  CLRF   78
0DB1:  CLRF   79
0DB2:  CLRF   7A
*
0DB6:  MOVF   58,W
0DB7:  MOVWF  5F
0DB8:  MOVF   5C,W
0DB9:  XORWF  5F,F
0DBA:  BTFSS  5F.7
0DBB:  GOTO   5C1
0DBC:  BCF    03.2
0DBD:  BCF    03.0
0DBE:  BTFSC  58.7
0DBF:  BSF    03.0
0DC0:  GOTO   5F4
0DC1:  MOVF   58,W
0DC2:  MOVWF  5F
0DC3:  MOVF   5B,W
0DC4:  MOVWF  60
0DC5:  MOVF   57,W
0DC6:  SUBWF  60,F
0DC7:  BTFSC  03.2
0DC8:  GOTO   5CF
0DC9:  BTFSS  5F.7
0DCA:  GOTO   5F4
0DCB:  MOVF   03,W
0DCC:  XORLW  01
0DCD:  MOVWF  03
0DCE:  GOTO   5F4
0DCF:  MOVF   5C,W
0DD0:  MOVWF  60
0DD1:  MOVF   58,W
0DD2:  SUBWF  60,F
0DD3:  BTFSC  03.2
0DD4:  GOTO   5DB
0DD5:  BTFSS  5F.7
0DD6:  GOTO   5F4
0DD7:  MOVF   03,W
0DD8:  XORLW  01
0DD9:  MOVWF  03
0DDA:  GOTO   5F4
0DDB:  MOVF   5D,W
0DDC:  MOVWF  60
0DDD:  MOVF   59,W
0DDE:  SUBWF  60,F
0DDF:  BTFSC  03.2
0DE0:  GOTO   5E7
0DE1:  BTFSS  5F.7
0DE2:  GOTO   5F4
0DE3:  MOVF   03,W
0DE4:  XORLW  01
0DE5:  MOVWF  03
0DE6:  GOTO   5F4
0DE7:  MOVF   5E,W
0DE8:  MOVWF  60
0DE9:  MOVF   5A,W
0DEA:  SUBWF  60,F
0DEB:  BTFSC  03.2
0DEC:  GOTO   5F3
0DED:  BTFSS  5F.7
0DEE:  GOTO   5F4
0DEF:  MOVF   03,W
0DF0:  XORLW  01
0DF1:  MOVWF  03
0DF2:  GOTO   5F4
0DF3:  BCF    03.0
0DF4:  RETURN
0DF5:  MOVF   04,W
0DF6:  MOVWF  5C
0DF7:  MOVF   5B,W
0DF8:  MOVWF  5E
0DF9:  BTFSC  03.2
0DFA:  GOTO   687
0DFB:  MOVF   5A,W
0DFC:  MOVWF  67
0DFD:  MOVF   59,W
0DFE:  MOVWF  66
0DFF:  MOVF   58,W
0E00:  MOVWF  65
0E01:  MOVF   57,W
0E02:  MOVWF  64
0E03:  CLRF   6B
0E04:  CLRF   6A
0E05:  MOVLW  20
0E06:  MOVWF  69
0E07:  MOVLW  82
0E08:  MOVWF  68
0E09:  MOVF   64,W
0E0A:  BTFSC  03.2
0E0B:  GOTO   679
0E0C:  MOVWF  6C
0E0D:  MOVF   68,W
0E0E:  BTFSC  03.2
0E0F:  GOTO   679
0E10:  ADDWF  6C,F
0E11:  BTFSC  03.0
0E12:  GOTO   61A
0E13:  MOVLW  7F
0E14:  SUBWF  6C,F
0E15:  BTFSS  03.0
0E16:  GOTO   679
0E17:  BTFSC  03.2
0E18:  GOTO   679
0E19:  GOTO   61E
0E1A:  MOVLW  81
0E1B:  ADDWF  6C,F
0E1C:  BTFSC  03.0
0E1D:  GOTO   679
0E1E:  MOVF   6C,W
0E1F:  MOVWF  77
0E20:  CLRF   78
0E21:  CLRF   79
0E22:  CLRF   7A
0E23:  MOVF   65,W
0E24:  MOVWF  70
0E25:  BSF    70.7
0E26:  MOVF   66,W
0E27:  MOVWF  6F
0E28:  MOVF   67,W
0E29:  MOVWF  6E
0E2A:  MOVLW  18
0E2B:  MOVWF  6C
0E2C:  CLRF   6D
0E2D:  BTFSS  6E.0
0E2E:  GOTO   647
0E2F:  MOVF   6B,W
0E30:  ADDWF  7A,F
0E31:  BTFSS  03.0
0E32:  GOTO   639
0E33:  INCF   79,F
0E34:  BTFSS  03.2
0E35:  GOTO   639
0E36:  INCF   78,F
0E37:  BTFSC  03.2
0E38:  BSF    6D.7
0E39:  MOVF   6A,W
0E3A:  ADDWF  79,F
0E3B:  BTFSS  03.0
0E3C:  GOTO   640
0E3D:  INCF   78,F
0E3E:  BTFSC  03.2
0E3F:  BSF    6D.7
0E40:  MOVF   69,W
0E41:  MOVWF  66
0E42:  BSF    66.7
0E43:  MOVF   66,W
0E44:  ADDWF  78,F
0E45:  BTFSC  03.0
0E46:  BSF    6D.7
0E47:  RLF    6D,F
0E48:  RRF    78,F
0E49:  RRF    79,F
0E4A:  RRF    7A,F
0E4B:  RRF    70,F
0E4C:  RRF    6F,F
0E4D:  RRF    6E,F
0E4E:  BCF    03.0
0E4F:  DECFSZ 6C,F
0E50:  GOTO   62C
0E51:  MOVLW  01
0E52:  ADDWF  77,F
0E53:  BTFSC  03.0
0E54:  GOTO   679
0E55:  BTFSC  78.7
0E56:  GOTO   65E
0E57:  RLF    70,F
0E58:  RLF    7A,F
0E59:  RLF    79,F
0E5A:  RLF    78,F
0E5B:  DECF   77,F
0E5C:  BTFSC  03.2
0E5D:  GOTO   679
0E5E:  BTFSS  70.7
0E5F:  GOTO   66F
0E60:  INCF   7A,F
0E61:  BTFSS  03.2
0E62:  GOTO   66F
0E63:  INCF   79,F
0E64:  BTFSS  03.2
0E65:  GOTO   66F
0E66:  INCF   78,F
0E67:  BTFSS  03.2
0E68:  GOTO   66F
0E69:  RRF    78,F
0E6A:  RRF    79,F
0E6B:  RRF    7A,F
0E6C:  INCF   77,F
0E6D:  BTFSC  03.2
0E6E:  GOTO   679
0E6F:  MOVF   65,W
0E70:  MOVWF  6D
0E71:  MOVF   69,W
0E72:  XORWF  6D,F
0E73:  BTFSS  6D.7
0E74:  GOTO   677
0E75:  BSF    78.7
0E76:  GOTO   67D
0E77:  BCF    78.7
0E78:  GOTO   67D
0E79:  CLRF   77
0E7A:  CLRF   78
0E7B:  CLRF   79
0E7C:  CLRF   7A
0E7D:  MOVF   7A,W
0E7E:  MOVWF  5A
0E7F:  MOVF   79,W
0E80:  MOVWF  59
0E81:  MOVF   78,W
0E82:  MOVWF  58
0E83:  MOVF   77,W
0E84:  MOVWF  57
0E85:  DECFSZ 5E,F
0E86:  GOTO   5FB
0E87:  MOVF   5A,W
0E88:  MOVWF  67
0E89:  MOVF   59,W
0E8A:  MOVWF  66
0E8B:  MOVF   58,W
0E8C:  MOVWF  65
0E8D:  MOVF   57,W
0E8E:  MOVWF  64
0E8F:  MOVF   64,W
0E90:  SUBLW  B6
0E91:  MOVWF  64
0E92:  CLRF   7A
0E93:  MOVF   65,W
0E94:  MOVWF  68
0E95:  BSF    65.7
0E96:  BCF    03.0
0E97:  RRF    65,F
0E98:  RRF    66,F
0E99:  RRF    67,F
0E9A:  RRF    7A,F
0E9B:  RRF    79,F
0E9C:  RRF    78,F
0E9D:  RRF    77,F
0E9E:  DECFSZ 64,F
0E9F:  GOTO   696
0EA0:  BTFSS  68.7
0EA1:  GOTO   6AD
0EA2:  COMF   77,F
0EA3:  COMF   78,F
0EA4:  COMF   79,F
0EA5:  COMF   7A,F
0EA6:  INCF   77,F
0EA7:  BTFSC  03.2
0EA8:  INCF   78,F
0EA9:  BTFSC  03.2
0EAA:  INCF   79,F
0EAB:  BTFSC  03.2
0EAC:  INCF   7A,F
0EAD:  MOVF   7A,W
0EAE:  MOVWF  5A
0EAF:  MOVF   79,W
0EB0:  MOVWF  59
0EB1:  MOVF   78,W
0EB2:  MOVWF  58
0EB3:  MOVF   77,W
0EB4:  MOVWF  57
0EB5:  BTFSS  5A.7
0EB6:  GOTO   6C4
0EB7:  DECF   5C,F
0EB8:  BSF    5C.5
0EB9:  COMF   57,F
0EBA:  COMF   58,F
0EBB:  COMF   59,F
0EBC:  COMF   5A,F
0EBD:  INCF   57,F
0EBE:  BTFSC  03.2
0EBF:  INCF   58,F
0EC0:  BTFSC  03.2
0EC1:  INCF   59,F
0EC2:  BTFSC  03.2
0EC3:  INCF   5A,F
0EC4:  MOVLW  3B
0EC5:  MOVWF  63
0EC6:  MOVLW  9A
0EC7:  MOVWF  62
0EC8:  MOVLW  CA
0EC9:  MOVWF  61
0ECA:  CLRF   60
0ECB:  MOVLW  0A
0ECC:  MOVWF  5E
0ECD:  MOVF   5B,W
0ECE:  BTFSC  03.2
0ECF:  INCF   5C,F
0ED0:  BSF    03.1
0ED1:  MOVLW  57
0ED2:  MOVWF  04
0ED3:  BCF    03.7
0ED4:  MOVF   5A,W
0ED5:  MOVWF  67
0ED6:  MOVF   59,W
0ED7:  MOVWF  66
0ED8:  MOVF   58,W
0ED9:  MOVWF  65
0EDA:  MOVF   57,W
0EDB:  MOVWF  64
0EDC:  MOVF   63,W
0EDD:  MOVWF  6B
0EDE:  MOVF   62,W
0EDF:  MOVWF  6A
0EE0:  MOVF   61,W
0EE1:  MOVWF  69
0EE2:  MOVF   60,W
0EE3:  MOVWF  68
0EE4:  BTFSC  03.1
0EE5:  GOTO   6E9
0EE6:  MOVLW  6C
0EE7:  MOVWF  04
0EE8:  BCF    03.7
0EE9:  CLRF   77
0EEA:  CLRF   78
0EEB:  CLRF   79
0EEC:  CLRF   7A
0EED:  CLRF   6C
0EEE:  CLRF   6D
0EEF:  CLRF   6E
0EF0:  CLRF   6F
0EF1:  MOVF   6B,W
0EF2:  IORWF  6A,W
0EF3:  IORWF  69,W
0EF4:  IORWF  68,W
0EF5:  BTFSC  03.2
0EF6:  GOTO   727
0EF7:  MOVLW  20
0EF8:  MOVWF  70
0EF9:  BCF    03.0
0EFA:  RLF    64,F
0EFB:  RLF    65,F
0EFC:  RLF    66,F
0EFD:  RLF    67,F
0EFE:  RLF    6C,F
0EFF:  RLF    6D,F
0F00:  RLF    6E,F
0F01:  RLF    6F,F
0F02:  MOVF   6B,W
0F03:  SUBWF  6F,W
0F04:  BTFSS  03.2
0F05:  GOTO   710
0F06:  MOVF   6A,W
0F07:  SUBWF  6E,W
0F08:  BTFSS  03.2
0F09:  GOTO   710
0F0A:  MOVF   69,W
0F0B:  SUBWF  6D,W
0F0C:  BTFSS  03.2
0F0D:  GOTO   710
0F0E:  MOVF   68,W
0F0F:  SUBWF  6C,W
0F10:  BTFSS  03.0
0F11:  GOTO   721
0F12:  MOVF   68,W
0F13:  SUBWF  6C,F
0F14:  MOVF   69,W
0F15:  BTFSS  03.0
0F16:  INCFSZ 69,W
0F17:  SUBWF  6D,F
0F18:  MOVF   6A,W
0F19:  BTFSS  03.0
0F1A:  INCFSZ 6A,W
0F1B:  SUBWF  6E,F
0F1C:  MOVF   6B,W
0F1D:  BTFSS  03.0
0F1E:  INCFSZ 6B,W
0F1F:  SUBWF  6F,F
0F20:  BSF    03.0
0F21:  RLF    77,F
0F22:  RLF    78,F
0F23:  RLF    79,F
0F24:  RLF    7A,F
0F25:  DECFSZ 70,F
0F26:  GOTO   6F9
0F27:  MOVF   6C,W
0F28:  MOVWF  00
0F29:  INCF   04,F
0F2A:  MOVF   6D,W
0F2B:  MOVWF  00
0F2C:  INCF   04,F
0F2D:  MOVF   6E,W
0F2E:  MOVWF  00
0F2F:  INCF   04,F
0F30:  MOVF   6F,W
0F31:  MOVWF  00
0F32:  MOVF   78,W
0F33:  MOVF   77,F
0F34:  BTFSS  03.2
0F35:  GOTO   749
0F36:  INCF   5B,W
0F37:  SUBWF  5E,W
0F38:  BTFSC  03.2
0F39:  GOTO   749
0F3A:  MOVF   5C,W
0F3B:  BTFSC  03.2
0F3C:  GOTO   74B
0F3D:  ANDLW  0F
0F3E:  SUBWF  5E,W
0F3F:  BTFSC  03.2
0F40:  GOTO   743
0F41:  BTFSC  03.0
0F42:  GOTO   783
0F43:  BTFSC  5C.7
0F44:  GOTO   783
0F45:  BTFSC  5C.6
0F46:  GOTO   74B
0F47:  MOVLW  20
0F48:  GOTO   77D
0F49:  MOVLW  20
0F4A:  ANDWF  5C,F
0F4B:  BTFSS  5C.5
0F4C:  GOTO   75B
0F4D:  BCF    5C.5
0F4E:  MOVF   5B,W
0F4F:  BTFSS  03.2
0F50:  DECF   5C,F
0F51:  MOVF   77,W
0F52:  MOVWF  5C
0F53:  MOVLW  2D
0F54:  MOVWF  64
0F55:  BCF    0A.3
0F56:  CALL   33E
0F57:  BSF    0A.3
0F58:  MOVF   5C,W
0F59:  MOVWF  77
0F5A:  CLRF   5C
0F5B:  MOVF   5B,W
0F5C:  SUBWF  5E,W
0F5D:  BTFSS  03.2
0F5E:  GOTO   76B
0F5F:  MOVF   77,W
0F60:  MOVWF  5C
0F61:  MOVLW  2E
0F62:  MOVWF  64
0F63:  BCF    0A.3
0F64:  CALL   33E
0F65:  BSF    0A.3
0F66:  MOVF   5C,W
0F67:  MOVWF  77
0F68:  MOVLW  20
0F69:  ANDWF  5C,F
0F6A:  MOVLW  00
0F6B:  MOVLW  30
0F6C:  BTFSS  5C.5
0F6D:  GOTO   77D
0F6E:  BCF    5C.5
0F6F:  MOVF   5B,W
0F70:  BTFSS  03.2
0F71:  DECF   5C,F
0F72:  MOVF   77,W
0F73:  MOVWF  5C
0F74:  MOVLW  2D
0F75:  MOVWF  64
0F76:  BCF    0A.3
0F77:  CALL   33E
0F78:  BSF    0A.3
0F79:  MOVF   5C,W
0F7A:  MOVWF  77
0F7B:  CLRF   5C
0F7C:  MOVLW  30
0F7D:  ADDWF  77,F
0F7E:  MOVF   77,W
0F7F:  MOVWF  64
0F80:  BCF    0A.3
0F81:  CALL   33E
0F82:  BSF    0A.3
0F83:  BCF    03.1
0F84:  MOVF   63,W
0F85:  MOVWF  67
0F86:  MOVF   62,W
0F87:  MOVWF  66
0F88:  MOVF   61,W
0F89:  MOVWF  65
0F8A:  MOVF   60,W
0F8B:  MOVWF  64
0F8C:  CLRF   6B
0F8D:  CLRF   6A
0F8E:  CLRF   69
0F8F:  MOVLW  0A
0F90:  MOVWF  68
0F91:  BTFSC  03.1
0F92:  GOTO   796
0F93:  MOVLW  6C
0F94:  MOVWF  04
0F95:  BCF    03.7
0F96:  CLRF   77
0F97:  CLRF   78
0F98:  CLRF   79
0F99:  CLRF   7A
0F9A:  CLRF   6C
0F9B:  CLRF   6D
0F9C:  CLRF   6E
0F9D:  CLRF   6F
0F9E:  MOVF   6B,W
0F9F:  IORWF  6A,W
0FA0:  IORWF  69,W
0FA1:  IORWF  68,W
0FA2:  BTFSC  03.2
0FA3:  GOTO   7D4
0FA4:  MOVLW  20
0FA5:  MOVWF  70
0FA6:  BCF    03.0
0FA7:  RLF    64,F
0FA8:  RLF    65,F
0FA9:  RLF    66,F
0FAA:  RLF    67,F
0FAB:  RLF    6C,F
0FAC:  RLF    6D,F
0FAD:  RLF    6E,F
0FAE:  RLF    6F,F
0FAF:  MOVF   6B,W
0FB0:  SUBWF  6F,W
0FB1:  BTFSS  03.2
0FB2:  GOTO   7BD
0FB3:  MOVF   6A,W
0FB4:  SUBWF  6E,W
0FB5:  BTFSS  03.2
0FB6:  GOTO   7BD
0FB7:  MOVF   69,W
0FB8:  SUBWF  6D,W
0FB9:  BTFSS  03.2
0FBA:  GOTO   7BD
0FBB:  MOVF   68,W
0FBC:  SUBWF  6C,W
0FBD:  BTFSS  03.0
0FBE:  GOTO   7CE
0FBF:  MOVF   68,W
0FC0:  SUBWF  6C,F
0FC1:  MOVF   69,W
0FC2:  BTFSS  03.0
0FC3:  INCFSZ 69,W
0FC4:  SUBWF  6D,F
0FC5:  MOVF   6A,W
0FC6:  BTFSS  03.0
0FC7:  INCFSZ 6A,W
0FC8:  SUBWF  6E,F
0FC9:  MOVF   6B,W
0FCA:  BTFSS  03.0
0FCB:  INCFSZ 6B,W
0FCC:  SUBWF  6F,F
0FCD:  BSF    03.0
0FCE:  RLF    77,F
0FCF:  RLF    78,F
0FD0:  RLF    79,F
0FD1:  RLF    7A,F
0FD2:  DECFSZ 70,F
0FD3:  GOTO   7A6
0FD4:  MOVF   6C,W
0FD5:  MOVWF  00
0FD6:  INCF   04,F
0FD7:  MOVF   6D,W
0FD8:  MOVWF  00
0FD9:  INCF   04,F
0FDA:  MOVF   6E,W
0FDB:  MOVWF  00
0FDC:  INCF   04,F
0FDD:  MOVF   6F,W
0FDE:  MOVWF  00
0FDF:  MOVF   7A,W
0FE0:  MOVWF  63
0FE1:  MOVF   79,W
0FE2:  MOVWF  62
0FE3:  MOVF   78,W
0FE4:  MOVWF  61
0FE5:  MOVF   77,W
0FE6:  MOVWF  60
0FE7:  DECFSZ 5E,F
0FE8:  GOTO   6D0
0FE9:  BSF    0A.3
0FEA:  BSF    0A.4
0FEB:  GOTO   092 (RETURN)
*
10A3:  MOVF   78,W
10A4:  MOVF   55,W
10A5:  MOVWF  5C
10A6:  MOVLW  64
10A7:  MOVWF  5D
10A8:  MOVF   5D,W
10A9:  CLRF   78
10AA:  SUBWF  5C,W
10AB:  BTFSC  03.0
10AC:  GOTO   0B0
10AD:  MOVF   5C,W
10AE:  MOVWF  77
10AF:  GOTO   0BC
10B0:  CLRF   77
10B1:  MOVLW  08
10B2:  MOVWF  5E
10B3:  RLF    5C,F
10B4:  RLF    77,F
10B5:  MOVF   5D,W
10B6:  SUBWF  77,W
10B7:  BTFSC  03.0
10B8:  MOVWF  77
10B9:  RLF    78,F
10BA:  DECFSZ 5E,F
10BB:  GOTO   0B3
10BC:  MOVF   77,W
10BD:  MOVWF  55
10BE:  MOVF   78,W
10BF:  MOVLW  30
10C0:  BTFSS  03.2
10C1:  GOTO   0C9
10C2:  BTFSS  56.1
10C3:  GOTO   0D2
10C4:  BTFSC  56.3
10C5:  GOTO   0D2
10C6:  BTFSC  56.4
10C7:  MOVLW  20
10C8:  GOTO   0CC
10C9:  BCF    56.3
10CA:  BCF    56.4
10CB:  BSF    56.0
10CC:  ADDWF  78,F
10CD:  MOVF   78,W
10CE:  MOVWF  64
10CF:  BCF    0A.4
10D0:  CALL   33E
10D1:  BSF    0A.4
10D2:  MOVF   55,W
10D3:  MOVWF  5C
10D4:  MOVLW  0A
10D5:  MOVWF  5D
10D6:  MOVF   5D,W
10D7:  CLRF   78
10D8:  SUBWF  5C,W
10D9:  BTFSC  03.0
10DA:  GOTO   0DE
10DB:  MOVF   5C,W
10DC:  MOVWF  77
10DD:  GOTO   0EA
10DE:  CLRF   77
10DF:  MOVLW  08
10E0:  MOVWF  5E
10E1:  RLF    5C,F
10E2:  RLF    77,F
10E3:  MOVF   5D,W
10E4:  SUBWF  77,W
10E5:  BTFSC  03.0
10E6:  MOVWF  77
10E7:  RLF    78,F
10E8:  DECFSZ 5E,F
10E9:  GOTO   0E1
10EA:  MOVF   77,W
10EB:  MOVWF  55
10EC:  MOVF   78,W
10ED:  MOVLW  30
10EE:  BTFSS  03.2
10EF:  GOTO   0F6
10F0:  BTFSC  56.3
10F1:  GOTO   0FC
10F2:  BTFSS  56.0
10F3:  GOTO   0FC
10F4:  BTFSC  56.4
10F5:  MOVLW  20
10F6:  ADDWF  78,F
10F7:  MOVF   78,W
10F8:  MOVWF  64
10F9:  BCF    0A.4
10FA:  CALL   33E
10FB:  BSF    0A.4
10FC:  MOVLW  30
10FD:  ADDWF  55,F
10FE:  MOVF   55,W
10FF:  MOVWF  64
1100:  BCF    0A.4
1101:  CALL   33E
1102:  BSF    0A.4
*
1539:  MOVF   5D,W
153A:  CLRF   78
153B:  SUBWF  5C,W
153C:  BTFSC  03.0
153D:  GOTO   541
153E:  MOVF   5C,W
153F:  MOVWF  77
1540:  GOTO   54D
1541:  CLRF   77
1542:  MOVLW  08
1543:  MOVWF  5E
1544:  RLF    5C,F
1545:  RLF    77,F
1546:  MOVF   5D,W
1547:  SUBWF  77,W
1548:  BTFSC  03.0
1549:  MOVWF  77
154A:  RLF    78,F
154B:  DECFSZ 5E,F
154C:  GOTO   544
*
1555:  MOVF   5D,W
1556:  CLRF   78
1557:  SUBWF  5C,W
1558:  BTFSC  03.0
1559:  GOTO   55D
155A:  MOVF   5C,W
155B:  MOVWF  77
155C:  GOTO   569
155D:  CLRF   77
155E:  MOVLW  08
155F:  MOVWF  5E
1560:  RLF    5C,F
1561:  RLF    77,F
1562:  MOVF   5D,W
1563:  SUBWF  77,W
1564:  BTFSC  03.0
1565:  MOVWF  77
1566:  RLF    78,F
1567:  DECFSZ 5E,F
1568:  GOTO   560
*
157D:  MOVF   5D,W
157E:  CLRF   78
157F:  SUBWF  5C,W
1580:  BTFSC  03.0
1581:  GOTO   585
1582:  MOVF   5C,W
1583:  MOVWF  77
1584:  GOTO   591
1585:  CLRF   77
1586:  MOVLW  08
1587:  MOVWF  5E
1588:  RLF    5C,F
1589:  RLF    77,F
158A:  MOVF   5D,W
158B:  SUBWF  77,W
158C:  BTFSC  03.0
158D:  MOVWF  77
158E:  RLF    78,F
158F:  DECFSZ 5E,F
1590:  GOTO   588
*
1599:  MOVF   5D,W
159A:  CLRF   78
159B:  SUBWF  5C,W
159C:  BTFSC  03.0
159D:  GOTO   5A1
159E:  MOVF   5C,W
159F:  MOVWF  77
15A0:  GOTO   5AD
15A1:  CLRF   77
15A2:  MOVLW  08
15A3:  MOVWF  5E
15A4:  RLF    5C,F
15A5:  RLF    77,F
15A6:  MOVF   5D,W
15A7:  SUBWF  77,W
15A8:  BTFSC  03.0
15A9:  MOVWF  77
15AA:  RLF    78,F
15AB:  DECFSZ 5E,F
15AC:  GOTO   5A4
*
15C0:  MOVF   5D,W
15C1:  CLRF   78
15C2:  SUBWF  5C,W
15C3:  BTFSC  03.0
15C4:  GOTO   5C8
15C5:  MOVF   5C,W
15C6:  MOVWF  77
15C7:  GOTO   5D4
15C8:  CLRF   77
15C9:  MOVLW  08
15CA:  MOVWF  5E
15CB:  RLF    5C,F
15CC:  RLF    77,F
15CD:  MOVF   5D,W
15CE:  SUBWF  77,W
15CF:  BTFSC  03.0
15D0:  MOVWF  77
15D1:  RLF    78,F
15D2:  DECFSZ 5E,F
15D3:  GOTO   5CB
*
15DC:  MOVF   5D,W
15DD:  CLRF   78
15DE:  SUBWF  5C,W
15DF:  BTFSC  03.0
15E0:  GOTO   5E4
15E1:  MOVF   5C,W
15E2:  MOVWF  77
15E3:  GOTO   5F0
15E4:  CLRF   77
15E5:  MOVLW  08
15E6:  MOVWF  5E
15E7:  RLF    5C,F
15E8:  RLF    77,F
15E9:  MOVF   5D,W
15EA:  SUBWF  77,W
15EB:  BTFSC  03.0
15EC:  MOVWF  77
15ED:  RLF    78,F
15EE:  DECFSZ 5E,F
15EF:  GOTO   5E7
*
1604:  MOVF   5D,W
1605:  CLRF   78
1606:  SUBWF  5C,W
1607:  BTFSC  03.0
1608:  GOTO   60C
1609:  MOVF   5C,W
160A:  MOVWF  77
160B:  GOTO   618
160C:  CLRF   77
160D:  MOVLW  08
160E:  MOVWF  5E
160F:  RLF    5C,F
1610:  RLF    77,F
1611:  MOVF   5D,W
1612:  SUBWF  77,W
1613:  BTFSC  03.0
1614:  MOVWF  77
1615:  RLF    78,F
1616:  DECFSZ 5E,F
1617:  GOTO   60F
*
1620:  MOVF   5D,W
1621:  CLRF   78
1622:  SUBWF  5C,W
1623:  BTFSC  03.0
1624:  GOTO   628
1625:  MOVF   5C,W
1626:  MOVWF  77
1627:  GOTO   634
1628:  CLRF   77
1629:  MOVLW  08
162A:  MOVWF  5E
162B:  RLF    5C,F
162C:  RLF    77,F
162D:  MOVF   5D,W
162E:  SUBWF  77,W
162F:  BTFSC  03.0
1630:  MOVWF  77
1631:  RLF    78,F
1632:  DECFSZ 5E,F
1633:  GOTO   62B
*
1648:  MOVF   5D,W
1649:  CLRF   78
164A:  SUBWF  5C,W
164B:  BTFSC  03.0
164C:  GOTO   650
164D:  MOVF   5C,W
164E:  MOVWF  77
164F:  GOTO   65C
1650:  CLRF   77
1651:  MOVLW  08
1652:  MOVWF  5E
1653:  RLF    5C,F
1654:  RLF    77,F
1655:  MOVF   5D,W
1656:  SUBWF  77,W
1657:  BTFSC  03.0
1658:  MOVWF  77
1659:  RLF    78,F
165A:  DECFSZ 5E,F
165B:  GOTO   653
*
1664:  MOVF   5D,W
1665:  CLRF   78
1666:  SUBWF  5C,W
1667:  BTFSC  03.0
1668:  GOTO   66C
1669:  MOVF   5C,W
166A:  MOVWF  77
166B:  GOTO   678
166C:  CLRF   77
166D:  MOVLW  08
166E:  MOVWF  5E
166F:  RLF    5C,F
1670:  RLF    77,F
1671:  MOVF   5D,W
1672:  SUBWF  77,W
1673:  BTFSC  03.0
1674:  MOVWF  77
1675:  RLF    78,F
1676:  DECFSZ 5E,F
1677:  GOTO   66F
*
168B:  MOVF   5D,W
168C:  CLRF   78
168D:  SUBWF  5C,W
168E:  BTFSC  03.0
168F:  GOTO   693
1690:  MOVF   5C,W
1691:  MOVWF  77
1692:  GOTO   69F
1693:  CLRF   77
1694:  MOVLW  08
1695:  MOVWF  5E
1696:  RLF    5C,F
1697:  RLF    77,F
1698:  MOVF   5D,W
1699:  SUBWF  77,W
169A:  BTFSC  03.0
169B:  MOVWF  77
169C:  RLF    78,F
169D:  DECFSZ 5E,F
169E:  GOTO   696
*
16A7:  MOVF   5D,W
16A8:  CLRF   78
16A9:  SUBWF  5C,W
16AA:  BTFSC  03.0
16AB:  GOTO   6AF
16AC:  MOVF   5C,W
16AD:  MOVWF  77
16AE:  GOTO   6BB
16AF:  CLRF   77
16B0:  MOVLW  08
16B1:  MOVWF  5E
16B2:  RLF    5C,F
16B3:  RLF    77,F
16B4:  MOVF   5D,W
16B5:  SUBWF  77,W
16B6:  BTFSC  03.0
16B7:  MOVWF  77
16B8:  RLF    78,F
16B9:  DECFSZ 5E,F
16BA:  GOTO   6B2
*
17C5:  BSF    0A.0
17C6:  BSF    0A.1
17C7:  BSF    0A.2
17C8:  ADDWF  02,F
17C9:  GOTO   02F
17CA:  GOTO   050
17CB:  GOTO   153
17CC:  GOTO   1D6
17CD:  GOTO   259
17CE:  GOTO   37D
17CF:  GOTO   49F
17D0:  GOTO   6E7
17D1:  MOVLW  10
17D2:  MOVWF  57
17D3:  CLRF   77
17D4:  CLRF   7A
17D5:  RRF    54,F
17D6:  RRF    53,F
17D7:  BTFSS  03.0
17D8:  GOTO   7DF
17D9:  MOVF   55,W
17DA:  ADDWF  77,F
17DB:  BTFSC  03.0
17DC:  INCF   7A,F
17DD:  MOVF   56,W
17DE:  ADDWF  7A,F
17DF:  RRF    7A,F
17E0:  RRF    77,F
17E1:  RRF    79,F
17E2:  RRF    78,F
17E3:  DECFSZ 57,F
17E4:  GOTO   7D5
17E5:  RETURN
....................  
.................... #list 
....................  
.................... #device ADC=10 
....................  
.................... #FUSES WDT                    // Watch Dog Timer 
.................... #FUSES NOBROWNOUT               //No brownout reset 
.................... #FUSES NOLVP                    //No low voltage prgming, B3(PIC16) or B5(PIC18) used for I/O 
.................... //#FUSES WRT_1000                 //Program Memory Write Protected from 0 to 0x0FFF 
....................  
.................... #use delay(crystal=20000000) 
*
0183:  MOVLW  65
0184:  MOVWF  04
0185:  BCF    03.7
0186:  MOVF   00,W
0187:  BTFSC  03.2
0188:  GOTO   196
0189:  MOVLW  06
018A:  MOVWF  78
018B:  CLRF   77
018C:  DECFSZ 77,F
018D:  GOTO   18C
018E:  DECFSZ 78,F
018F:  GOTO   18B
0190:  MOVLW  7B
0191:  MOVWF  77
0192:  DECFSZ 77,F
0193:  GOTO   192
0194:  DECFSZ 00,F
0195:  GOTO   189
0196:  RETURN
*
049E:  MOVLW  03
049F:  SUBWF  63,F
04A0:  BTFSS  03.0
04A1:  GOTO   4AC
04A2:  MOVLW  63
04A3:  MOVWF  04
04A4:  BCF    03.7
04A5:  MOVF   00,W
04A6:  BTFSC  03.2
04A7:  GOTO   4AC
04A8:  GOTO   4AA
04A9:  GOTO   4AA
04AA:  DECFSZ 00,F
04AB:  GOTO   4A9
*
04C1:  MOVLW  03
04C2:  SUBWF  63,F
04C3:  BTFSS  03.0
04C4:  GOTO   4CF
04C5:  MOVLW  63
04C6:  MOVWF  04
04C7:  BCF    03.7
04C8:  MOVF   00,W
04C9:  BTFSC  03.2
04CA:  GOTO   4CF
04CB:  GOTO   4CD
04CC:  GOTO   4CD
04CD:  DECFSZ 00,F
04CE:  GOTO   4CC
*
09AF:  MOVLW  03
09B0:  SUBWF  63,F
09B1:  BTFSS  03.0
09B2:  GOTO   1BD
09B3:  MOVLW  63
09B4:  MOVWF  04
09B5:  BCF    03.7
09B6:  MOVF   00,W
09B7:  BTFSC  03.2
09B8:  GOTO   1BD
09B9:  GOTO   1BB
09BA:  GOTO   1BB
09BB:  DECFSZ 00,F
09BC:  GOTO   1BA
*
09D2:  MOVLW  03
09D3:  SUBWF  63,F
09D4:  BTFSS  03.0
09D5:  GOTO   1E0
09D6:  MOVLW  63
09D7:  MOVWF  04
09D8:  BCF    03.7
09D9:  MOVF   00,W
09DA:  BTFSC  03.2
09DB:  GOTO   1E0
09DC:  GOTO   1DE
09DD:  GOTO   1DE
09DE:  DECFSZ 00,F
09DF:  GOTO   1DD
*
0AE7:  MOVLW  03
0AE8:  SUBWF  63,F
0AE9:  BTFSS  03.0
0AEA:  GOTO   2F5
0AEB:  MOVLW  63
0AEC:  MOVWF  04
0AED:  BCF    03.7
0AEE:  MOVF   00,W
0AEF:  BTFSC  03.2
0AF0:  GOTO   2F5
0AF1:  GOTO   2F3
0AF2:  GOTO   2F3
0AF3:  DECFSZ 00,F
0AF4:  GOTO   2F2
*
0B0A:  MOVLW  03
0B0B:  SUBWF  63,F
0B0C:  BTFSS  03.0
0B0D:  GOTO   318
0B0E:  MOVLW  63
0B0F:  MOVWF  04
0B10:  BCF    03.7
0B11:  MOVF   00,W
0B12:  BTFSC  03.2
0B13:  GOTO   318
0B14:  GOTO   316
0B15:  GOTO   316
0B16:  DECFSZ 00,F
0B17:  GOTO   315
....................  
.................... #use i2c(master,sda=PIN_B0,scl=PIN_B1) 
....................  
....................  
....................  
.................... #use i2c(master,sda=PIN_B0,scl=PIN_B1) 
....................  
.................... //////////////definicje stalych/////////////////////////////////// 
....................  
.................... #define E_UP   0 
.................... #define E_DOWN 1 
.................... #define E_OK   2 
.................... #define E_IDLE 3 
....................  
.................... //domyslne ustawienia kolejnych bitow w pamieci EEPROM zaraz po zaprogramowaniu 
.................... //#if defined (__PCM__)  
.................... //#rom int8 0x2100={26,0,0,0,0,0,0,0,0}  
.................... //#elif defined(__PCH__)  
.................... //#rom int 0xf00000={}  
.................... //#endif  
....................  
.................... #define EEPROM_TEMP            0x00 //temperatura 
.................... #define EEPROM_LIGHT_HOUR_ON   0x1  //godzina wlaczenia swiatla 
.................... #define EEPROM_LIGHT_MIN_ON    0x2  //minuta wlaczenia swiatla 
....................  
.................... #define EEPROM_LIGHT_HOUR_OFF  0x3  //godzina wylaczenia swiatla 
.................... #define EEPROM_LIGHT_MIN_OFF   0x4  //minuta wylaczenia swiatla 
....................  
.................... #define EEPROM_FEED_HOUR_CYCLE 0x5 //cykl co ile godzin wlaczyc karmienie 
.................... #define EEPROM_FEED_SEC_DELAY  0x6 //czas wlaczenia karmienia 
....................  
.................... #define EEPROM_AIR_HOUR_CYCLE 0x7 //cykl co ile godzin wlaczyc powietrze 
.................... #define EEPROM_AIR_MIN_DELAY  0x8 //czas wlaczenia powietrza 
....................  
.................... /////////////definicje pinow////////////////////////////////////// 
....................  
.................... #define P_FEED          PIN_C3 //karmienie 
.................... #define P_AIR           PIN_D0 //napowietrzanie 
.................... #define P_LIGHT         PIN_C1 //oswietlenie triak 
.................... #define P_HEATER        PIN_C2 //grzalka triak 
.................... #define P_BEEPER        PIN_D1 //sygnalizator dzwiekowy 
.................... #define P_LCDLIGHT      PIN_D2 //podswietlenie ekranu 
.................... #define DQ              PIN_B3 //dane 1wire 
.................... #define DS1820_DATAPIN PIN_B3 
....................  
.................... /////////////definicje stanow///////////////////////////////////// 
....................  
.................... #define OFF output_low  
.................... #define ON  output_high  
....................  
.................... //////////////deklaracja zmiennych/////////////////////////////// 
....................  
.................... char menu_event=E_IDLE; 
.................... char menu_pos=0; 
.................... boolean menu_select=false; 
.................... //byl byte zmienione na char 
.................... char sec,min,hour; 
.................... char LIGHT_HOUR_ON, LIGHT_HOUR_OFF; 
....................  
.................... int8 last_air_hour_on = 0; //ostatnie wlaczenie napowietrzania 
.................... int8 last_feed_hour_on = 0; //ostatnie wlaczenie karmienia 
....................  
.................... int8 numDev = 0;  
.................... float now_t_aqua, set_t; 
....................  
.................... /////////////zewnetrzne pliki//////////////////////////////////// 
....................  
.................... #include "drv\lcd.c"             //obsluga wyswietlacza 
....................  
.................... // flex_lcd.c  
....................  
.................... // Change these pins to fit your own board.  
....................  
.................... #define LCD_DB4   PIN_D4 //niebiesko-bialy  
.................... #define LCD_DB5   PIN_C5 //pomarancz        
.................... #define LCD_DB6   PIN_C4 //pomarancz-bialy  
.................... #define LCD_DB7   PIN_D3 //niebieski2       
....................  
.................... #define LCD_E     PIN_D5 //niebieski        
.................... #define LCD_RS    PIN_D7 //czerwony         
.................... #define LCD_RW    PIN_D6 //zolty    
....................  
.................... // If you only want a 6-pin interface to your LCD, then  
.................... // connect the R/W pin on the LCD to ground, and comment  
.................... // out the following line.  
....................  
.................... #define USE_LCD_RW   1       
....................  
.................... //========================================  
....................  
.................... #define lcd_type 2        // 0=5x7, 1=5x10, 2=2 lines  
.................... #define lcd_line_two 0x40 // LCD RAM address for the 2nd line  
....................  
....................  
.................... int8 const LCD_INIT_STRING[4] =  
.................... {  
....................  0x20 | (lcd_type << 2), // Func set: 4-bit, 2 lines, 5x8 dots  
....................  0xc,                    // Display on  
....................  1,                      // Clear display  
....................  6                       // Increment cursor  
....................  };  
....................                                
.................... //======================================== 
.................... //define own 8 sign stored in LCD memory 
.................... //display it on lcd eg. lcd_send_byte(1,0x0); 
.................... BYTE const LCD_CUSTOM_CHARS[] = {  
.................... 0xe,0x11,0x11,0x15,0xe,0xe,0xe,0x4,   //0 sign lamp 
.................... 0x14,0xa,0x0,0xe,0xb,0xe,0x1a,0xe,    //1 sign heather 
.................... 0x0,0x8,0x14,0x8,0x3,0x4,0x4,0x3,     //2 sign celsius 
.................... 0x4,0x14,0x4,0x14,0x4,0xe,0xe,0x4,    //3 sign thermometer 
.................... 0x0,0xa,0x15,0x0,0xa,0x15,0x0,0x0,    //4 sign aqua 
.................... 0x0,0x0,0x0,0x11,0xa,0xe,0x0,0x0,     //5 sign plate 
.................... 0x0,0xe,0x15,0x17,0x11,0xe,0x0,0x0,   //6 sign watch 
.................... 0x8,0x2,0x8,0x0,0x4,0x0,0x1f,0x0,     //7 sign air 
.................... 0x0,0x0,0x0,0x0,0x0,0x0,0x0,0x0       //8 lack of address 
.................... }; 
....................  
....................  
.................... //-------------------------------------  
.................... void lcd_send_nibble(int8 nibble)  
.................... {  
.................... // Note:  !! converts an integer expression  
.................... // to a boolean (1 or 0).  
....................  output_bit(LCD_DB4, !!(nibble & 1));  
*
021B:  BTFSC  6C.0
021C:  GOTO   21F
021D:  BCF    08.4
021E:  GOTO   220
021F:  BSF    08.4
0220:  BSF    03.5
0221:  BCF    08.4
*
0251:  BTFSC  6C.0
0252:  GOTO   255
0253:  BCF    08.4
0254:  GOTO   256
0255:  BSF    08.4
0256:  BSF    03.5
0257:  BCF    08.4
*
0299:  BTFSC  6C.0
029A:  GOTO   29D
029B:  BCF    08.4
029C:  GOTO   29E
029D:  BSF    08.4
029E:  BSF    03.5
029F:  BCF    08.4
*
02D1:  BTFSC  6C.0
02D2:  GOTO   2D5
02D3:  BCF    08.4
02D4:  GOTO   2D6
02D5:  BSF    08.4
02D6:  BSF    03.5
02D7:  BCF    08.4
....................  output_bit(LCD_DB5, !!(nibble & 2));   
*
0222:  BCF    03.5
0223:  BTFSC  6C.1
0224:  GOTO   227
0225:  BCF    07.5
0226:  GOTO   228
0227:  BSF    07.5
0228:  BCF    3E.5
0229:  MOVF   3E,W
022A:  BSF    03.5
022B:  MOVWF  07
*
0258:  BCF    03.5
0259:  BTFSC  6C.1
025A:  GOTO   25D
025B:  BCF    07.5
025C:  GOTO   25E
025D:  BSF    07.5
025E:  BCF    3E.5
025F:  MOVF   3E,W
0260:  BSF    03.5
0261:  MOVWF  07
*
02A0:  BCF    03.5
02A1:  BTFSC  6C.1
02A2:  GOTO   2A5
02A3:  BCF    07.5
02A4:  GOTO   2A6
02A5:  BSF    07.5
02A6:  BCF    3E.5
02A7:  MOVF   3E,W
02A8:  BSF    03.5
02A9:  MOVWF  07
*
02D8:  BCF    03.5
02D9:  BTFSC  6C.1
02DA:  GOTO   2DD
02DB:  BCF    07.5
02DC:  GOTO   2DE
02DD:  BSF    07.5
02DE:  BCF    3E.5
02DF:  MOVF   3E,W
02E0:  BSF    03.5
02E1:  MOVWF  07
....................  output_bit(LCD_DB6, !!(nibble & 4));     
*
022C:  BCF    03.5
022D:  BTFSC  6C.2
022E:  GOTO   231
022F:  BCF    07.4
0230:  GOTO   232
0231:  BSF    07.4
0232:  BCF    3E.4
0233:  MOVF   3E,W
0234:  BSF    03.5
0235:  MOVWF  07
*
0262:  BCF    03.5
0263:  BTFSC  6C.2
0264:  GOTO   267
0265:  BCF    07.4
0266:  GOTO   268
0267:  BSF    07.4
0268:  BCF    3E.4
0269:  MOVF   3E,W
026A:  BSF    03.5
026B:  MOVWF  07
*
02AA:  BCF    03.5
02AB:  BTFSC  6C.2
02AC:  GOTO   2AF
02AD:  BCF    07.4
02AE:  GOTO   2B0
02AF:  BSF    07.4
02B0:  BCF    3E.4
02B1:  MOVF   3E,W
02B2:  BSF    03.5
02B3:  MOVWF  07
*
02E2:  BCF    03.5
02E3:  BTFSC  6C.2
02E4:  GOTO   2E7
02E5:  BCF    07.4
02E6:  GOTO   2E8
02E7:  BSF    07.4
02E8:  BCF    3E.4
02E9:  MOVF   3E,W
02EA:  BSF    03.5
02EB:  MOVWF  07
....................  output_bit(LCD_DB7, !!(nibble & 8));     
*
0236:  BCF    03.5
0237:  BTFSC  6C.3
0238:  GOTO   23B
0239:  BCF    08.3
023A:  GOTO   23C
023B:  BSF    08.3
023C:  BSF    03.5
023D:  BCF    08.3
*
026C:  BCF    03.5
026D:  BTFSC  6C.3
026E:  GOTO   271
026F:  BCF    08.3
0270:  GOTO   272
0271:  BSF    08.3
0272:  BSF    03.5
0273:  BCF    08.3
*
02B4:  BCF    03.5
02B5:  BTFSC  6C.3
02B6:  GOTO   2B9
02B7:  BCF    08.3
02B8:  GOTO   2BA
02B9:  BSF    08.3
02BA:  BSF    03.5
02BB:  BCF    08.3
*
02EC:  BCF    03.5
02ED:  BTFSC  6C.3
02EE:  GOTO   2F1
02EF:  BCF    08.3
02F0:  GOTO   2F2
02F1:  BSF    08.3
02F2:  BSF    03.5
02F3:  BCF    08.3
....................  
....................  delay_cycles(1);  
*
023E:  NOP
*
0274:  NOP
*
02BC:  NOP
*
02F4:  NOP
....................  output_high(LCD_E);  
*
023F:  BCF    08.5
0240:  BCF    03.5
0241:  BSF    08.5
*
0275:  BCF    08.5
0276:  BCF    03.5
0277:  BSF    08.5
*
02BD:  BCF    08.5
02BE:  BCF    03.5
02BF:  BSF    08.5
*
02F5:  BCF    08.5
02F6:  BCF    03.5
02F7:  BSF    08.5
....................  delay_us(2);  
*
0242:  MOVLW  02
0243:  MOVWF  77
0244:  DECFSZ 77,F
0245:  GOTO   244
0246:  GOTO   247
0247:  NOP
*
0278:  MOVLW  02
0279:  MOVWF  77
027A:  DECFSZ 77,F
027B:  GOTO   27A
027C:  GOTO   27D
027D:  NOP
*
02C0:  MOVLW  02
02C1:  MOVWF  77
02C2:  DECFSZ 77,F
02C3:  GOTO   2C2
02C4:  GOTO   2C5
02C5:  NOP
*
02F8:  MOVLW  02
02F9:  MOVWF  77
02FA:  DECFSZ 77,F
02FB:  GOTO   2FA
02FC:  GOTO   2FD
02FD:  NOP
....................  output_low(LCD_E);  
*
0248:  BSF    03.5
0249:  BCF    08.5
024A:  BCF    03.5
024B:  BCF    08.5
*
027E:  BSF    03.5
027F:  BCF    08.5
0280:  BCF    03.5
0281:  BCF    08.5
*
02C6:  BSF    03.5
02C7:  BCF    08.5
02C8:  BCF    03.5
02C9:  BCF    08.5
*
02FE:  BSF    03.5
02FF:  BCF    08.5
0300:  BCF    03.5
0301:  BCF    08.5
.................... }  
....................  
.................... //-----------------------------------  
.................... // This sub-routine is only called by lcd_read_byte().  
.................... // It's not a stand-alone routine.  For example, the  
.................... // R/W signal is set high by lcd_read_byte() before  
.................... // this routine is called.       
....................  
.................... #ifdef USE_LCD_RW  
.................... int8 lcd_read_nibble(void)  
.................... {  
.................... int8 retval;  
.................... // Create bit variables so that we can easily set  
.................... // individual bits in the retval variable.  
.................... #bit retval_0 = retval.0  
.................... #bit retval_1 = retval.1  
.................... #bit retval_2 = retval.2  
.................... #bit retval_3 = retval.3  
....................  
.................... retval = 0;  
*
01A0:  CLRF   6D
*
01CA:  CLRF   6D
....................      
.................... output_high(LCD_E);  
*
01A1:  BSF    03.5
01A2:  BCF    08.5
01A3:  BCF    03.5
01A4:  BSF    08.5
*
01CB:  BSF    03.5
01CC:  BCF    08.5
01CD:  BCF    03.5
01CE:  BSF    08.5
.................... delay_cycles(1);  
*
01A5:  NOP
*
01CF:  NOP
....................  
.................... retval_0 = input(LCD_DB4);  
*
01A6:  BSF    03.5
01A7:  BSF    08.4
01A8:  BCF    03.5
01A9:  BCF    6D.0
01AA:  BTFSC  08.4
01AB:  BSF    6D.0
*
01D0:  BSF    03.5
01D1:  BSF    08.4
01D2:  BCF    03.5
01D3:  BCF    6D.0
01D4:  BTFSC  08.4
01D5:  BSF    6D.0
.................... retval_1 = input(LCD_DB5);  
*
01AC:  BSF    3E.5
01AD:  MOVF   3E,W
01AE:  BSF    03.5
01AF:  MOVWF  07
01B0:  BCF    03.5
01B1:  BCF    6D.1
01B2:  BTFSC  07.5
01B3:  BSF    6D.1
*
01D6:  BSF    3E.5
01D7:  MOVF   3E,W
01D8:  BSF    03.5
01D9:  MOVWF  07
01DA:  BCF    03.5
01DB:  BCF    6D.1
01DC:  BTFSC  07.5
01DD:  BSF    6D.1
.................... retval_2 = input(LCD_DB6);  
*
01B4:  BSF    3E.4
01B5:  MOVF   3E,W
01B6:  BSF    03.5
01B7:  MOVWF  07
01B8:  BCF    03.5
01B9:  BCF    6D.2
01BA:  BTFSC  07.4
01BB:  BSF    6D.2
*
01DE:  BSF    3E.4
01DF:  MOVF   3E,W
01E0:  BSF    03.5
01E1:  MOVWF  07
01E2:  BCF    03.5
01E3:  BCF    6D.2
01E4:  BTFSC  07.4
01E5:  BSF    6D.2
.................... retval_3 = input(LCD_DB7);  
*
01BC:  BSF    03.5
01BD:  BSF    08.3
01BE:  BCF    03.5
01BF:  BCF    6D.3
01C0:  BTFSC  08.3
01C1:  BSF    6D.3
*
01E6:  BSF    03.5
01E7:  BSF    08.3
01E8:  BCF    03.5
01E9:  BCF    6D.3
01EA:  BTFSC  08.3
01EB:  BSF    6D.3
....................    
.................... output_low(LCD_E);  
*
01C2:  BSF    03.5
01C3:  BCF    08.5
01C4:  BCF    03.5
01C5:  BCF    08.5
*
01EC:  BSF    03.5
01ED:  BCF    08.5
01EE:  BCF    03.5
01EF:  BCF    08.5
....................      
.................... return(retval);     
*
01C6:  MOVF   6D,W
01C7:  MOVWF  78
*
01F0:  MOVF   6D,W
01F1:  MOVWF  78
.................... }     
.................... #endif  
....................  
.................... //---------------------------------------  
.................... // Read a byte from the LCD and return it.  
....................  
.................... #ifdef USE_LCD_RW  
.................... int8 lcd_read_byte(void)  
.................... {  
.................... int8 low;  
.................... int8 high;  
....................  
.................... output_high(LCD_RW);  
*
019B:  BSF    03.5
019C:  BCF    08.6
019D:  BCF    03.5
019E:  BSF    08.6
.................... delay_cycles(1);  
019F:  NOP
....................  
.................... high = lcd_read_nibble();  
*
01C8:  MOVF   78,W
01C9:  MOVWF  6C
....................  
.................... low = lcd_read_nibble();  
*
01F2:  MOVF   78,W
01F3:  MOVWF  6B
....................  
.................... return( (high<<4) | low);  
01F4:  SWAPF  6C,W
01F5:  MOVWF  77
01F6:  MOVLW  F0
01F7:  ANDWF  77,F
01F8:  MOVF   77,W
01F9:  IORWF  6B,W
01FA:  MOVWF  78
.................... }  
.................... #endif  
....................  
.................... //----------------------------------------  
.................... // Send a byte to the LCD.  
.................... void lcd_send_byte(int8 address, int8 n)  
.................... {  
.................... output_low(LCD_RS);  
*
0197:  BSF    03.5
0198:  BCF    08.7
0199:  BCF    03.5
019A:  BCF    08.7
....................  
.................... #ifdef USE_LCD_RW  
.................... while(bit_test(lcd_read_byte(),7)) ;  
*
01FB:  MOVF   78,W
01FC:  MOVWF  6B
01FD:  BTFSC  6B.7
01FE:  GOTO   19B
.................... #else  
.................... delay_us(60);   
.................... #endif  
....................  
.................... if(address)  
01FF:  MOVF   69,F
0200:  BTFSC  03.2
0201:  GOTO   207
....................    output_high(LCD_RS);  
0202:  BSF    03.5
0203:  BCF    08.7
0204:  BCF    03.5
0205:  BSF    08.7
0206:  GOTO   20B
.................... else  
....................    output_low(LCD_RS);  
0207:  BSF    03.5
0208:  BCF    08.7
0209:  BCF    03.5
020A:  BCF    08.7
....................        
....................  delay_cycles(1);  
020B:  NOP
....................  
.................... #ifdef USE_LCD_RW  
.................... output_low(LCD_RW);  
020C:  BSF    03.5
020D:  BCF    08.6
020E:  BCF    03.5
020F:  BCF    08.6
.................... delay_cycles(1);  
0210:  NOP
.................... #endif  
....................  
.................... output_low(LCD_E);  
0211:  BSF    03.5
0212:  BCF    08.5
0213:  BCF    03.5
0214:  BCF    08.5
....................  
.................... lcd_send_nibble(n >> 4);  
0215:  SWAPF  6A,W
0216:  MOVWF  6B
0217:  MOVLW  0F
0218:  ANDWF  6B,F
0219:  MOVF   6B,W
021A:  MOVWF  6C
.................... lcd_send_nibble(n & 0xf);  
*
024C:  MOVF   6A,W
024D:  ANDLW  0F
024E:  MOVWF  6B
024F:  MOVF   6B,W
0250:  MOVWF  6C
*
0282:  RETURN
.................... }  
....................  
.................... //----------------------------  
.................... void lcd_init(void)  
.................... {  
.................... int8 i;  
....................  
.................... output_low(LCD_RS);  
0283:  BSF    03.5
0284:  BCF    08.7
0285:  BCF    03.5
0286:  BCF    08.7
....................  
.................... #ifdef USE_LCD_RW  
.................... output_low(LCD_RW);  
0287:  BSF    03.5
0288:  BCF    08.6
0289:  BCF    03.5
028A:  BCF    08.6
.................... #endif  
....................  
.................... output_low(LCD_E);  
028B:  BSF    03.5
028C:  BCF    08.5
028D:  BCF    03.5
028E:  BCF    08.5
....................  
.................... delay_ms(15);  
028F:  MOVLW  0F
0290:  MOVWF  65
0291:  CALL   183
....................  
.................... for(i=0 ;i < 3; i++)  
0292:  CLRF   53
0293:  MOVF   53,W
0294:  SUBLW  02
0295:  BTFSS  03.0
0296:  GOTO   2CF
....................    {  
....................     lcd_send_nibble(0x03);  
0297:  MOVLW  03
0298:  MOVWF  6C
....................     delay_ms(5);  
*
02CA:  MOVLW  05
02CB:  MOVWF  65
02CC:  CALL   183
02CD:  INCF   53,F
02CE:  GOTO   293
....................    }  
....................  
.................... lcd_send_nibble(0x02);  
02CF:  MOVLW  02
02D0:  MOVWF  6C
....................  
.................... for(i=0; i < sizeof(LCD_INIT_STRING); i++)  
*
0302:  CLRF   53
0303:  MOVF   53,W
0304:  SUBLW  03
0305:  BTFSS  03.0
0306:  GOTO   310
....................    {  
....................     lcd_send_byte(0, LCD_INIT_STRING[i]);  
0307:  MOVF   53,W
0308:  CALL   04F
0309:  MOVWF  54
030A:  CLRF   69
030B:  MOVF   54,W
030C:  MOVWF  6A
030D:  CALL   197
....................      
....................     // If the R/W signal is not used, then  
....................     // the busy bit can't be polled.  One of  
....................     // the init commands takes longer than  
....................     // the hard-coded delay of 60 us, so in  
....................     // that case, lets just do a 5 ms delay  
....................     // after all four of them.  
....................     #ifndef USE_LCD_RW  
030E:  INCF   53,F
030F:  GOTO   303
....................     delay_ms(5);  
....................     #endif  
....................    }  
0310:  BSF    0A.3
0311:  BSF    0A.4
0312:  GOTO   1AC (RETURN)
....................  
.................... }  
....................  
.................... //----------------------------  
....................  
.................... void lcd_gotoxy(int8 x, int8 y)  
.................... {  
.................... int8 address;  
....................  
.................... if(y != 1)  
*
032C:  DECFSZ 66,W
032D:  GOTO   32F
032E:  GOTO   332
....................    address = lcd_line_two;  
032F:  MOVLW  40
0330:  MOVWF  67
0331:  GOTO   333
.................... else  
....................    address=0;  
0332:  CLRF   67
....................  
.................... address += x-1;  
0333:  MOVLW  01
0334:  SUBWF  65,W
0335:  ADDWF  67,F
.................... lcd_send_byte(0, 0x80 | address);  
0336:  MOVF   67,W
0337:  IORLW  80
0338:  MOVWF  68
0339:  CLRF   69
033A:  MOVF   68,W
033B:  MOVWF  6A
033C:  CALL   197
033D:  RETURN
.................... }  
....................  
.................... //-----------------------------  
.................... void lcd_putc(char c)  
.................... {  
....................  switch(c)  
033E:  MOVF   64,W
033F:  XORLW  0C
0340:  BTFSC  03.2
0341:  GOTO   349
0342:  XORLW  06
0343:  BTFSC  03.2
0344:  GOTO   351
0345:  XORLW  02
0346:  BTFSC  03.2
0347:  GOTO   357
0348:  GOTO   35C
....................    {  
....................     case '\f':  
....................       lcd_send_byte(0,1);  
0349:  CLRF   69
034A:  MOVLW  01
034B:  MOVWF  6A
034C:  CALL   197
....................       delay_ms(2);  
034D:  MOVLW  02
034E:  MOVWF  65
034F:  CALL   183
....................       break;  
0350:  GOTO   361
....................      
....................     case '\n':  
....................        lcd_gotoxy(1,2);  
0351:  MOVLW  01
0352:  MOVWF  65
0353:  MOVLW  02
0354:  MOVWF  66
0355:  CALL   32C
....................        break;  
0356:  GOTO   361
....................      
....................     case '\b':  
....................        lcd_send_byte(0,0x10);  
0357:  CLRF   69
0358:  MOVLW  10
0359:  MOVWF  6A
035A:  CALL   197
....................        break;  
035B:  GOTO   361
....................      
....................     default:  
....................        lcd_send_byte(1,c);  
035C:  MOVLW  01
035D:  MOVWF  69
035E:  MOVF   64,W
035F:  MOVWF  6A
0360:  CALL   197
....................        break;  
....................    }  
0361:  RETURN
.................... }  
....................  
.................... //------------------------------  
.................... #ifdef USE_LCD_RW  
.................... char lcd_getc(int8 x, int8 y)  
.................... {  
.................... char value;  
....................  
.................... lcd_gotoxy(x,y);  
....................  
.................... // Wait until busy flag is low.  
.................... while(bit_test(lcd_read_byte(),7));   
....................  
.................... output_high(LCD_RS);  
.................... value = lcd_read_byte();  
.................... output_low(lcd_RS);  
....................  
.................... return(value);  
.................... }  
.................... #endif 
....................  
....................  
.................... //--------------------------------- 
.................... //run this after lcd_init if you want to use own sign 
.................... //definied in LCD_CUSTOM_CHARS 
.................... void lcd_init_custom_chars() {  
.................... BYTE i;  
....................  
.................... lcd_send_byte(0,0x40);  
*
0313:  CLRF   69
0314:  MOVLW  40
0315:  MOVWF  6A
0316:  CALL   197
.................... for (i=0;i<64;i++) {  
0317:  CLRF   53
0318:  MOVF   53,W
0319:  SUBLW  3F
031A:  BTFSS  03.0
031B:  GOTO   329
....................       lcd_send_byte(1,LCD_CUSTOM_CHARS[i]);  
031C:  MOVF   53,W
031D:  CALL   057
031E:  MOVWF  54
031F:  MOVLW  01
0320:  MOVWF  69
0321:  MOVF   54,W
0322:  MOVWF  6A
0323:  CALL   197
....................       delay_ms(2);  
0324:  MOVLW  02
0325:  MOVWF  65
0326:  CALL   183
0327:  INCF   53,F
0328:  GOTO   318
....................    } 
0329:  BSF    0A.3
032A:  BSF    0A.4
032B:  GOTO   1BC (RETURN)
.................... }  
....................  
.................... #include "drv\ds1307.c"     //zegar czasu rzeczywistego 
.................... /* 
.................... ZEGAR CZASU RZECZYWISTEGO  
....................   DS1307 
.................... */   
....................  
.................... #define DS1307_SDA  PIN_B0 
.................... #define DS1307_SCL  PIN_B1 
....................  
.................... #use i2c(master, sda=DS1307_SDA, scl=DS1307_SCL) 
*
079C:  MOVLW  08
079D:  MOVWF  78
079E:  MOVLW  04
079F:  MOVWF  77
07A0:  DECFSZ 77,F
07A1:  GOTO   7A0
07A2:  BCF    06.1
07A3:  BSF    03.5
07A4:  BCF    06.1
07A5:  MOVLW  03
07A6:  MOVWF  77
07A7:  DECFSZ 77,F
07A8:  GOTO   7A7
07A9:  BCF    03.5
07AA:  RLF    58,F
07AB:  BCF    06.0
07AC:  BTFSS  03.0
07AD:  GOTO   7B1
07AE:  BSF    03.5
07AF:  BSF    06.0
07B0:  BCF    03.5
07B1:  BTFSC  03.0
07B2:  GOTO   7B6
07B3:  BSF    03.5
07B4:  BCF    06.0
07B5:  BCF    03.5
07B6:  BSF    03.5
07B7:  BSF    06.1
07B8:  BCF    03.5
07B9:  BTFSS  06.1
07BA:  GOTO   7B9
07BB:  DECFSZ 78,F
07BC:  GOTO   79E
07BD:  MOVLW  04
07BE:  MOVWF  77
07BF:  DECFSZ 77,F
07C0:  GOTO   7BF
07C1:  BCF    06.1
07C2:  BSF    03.5
07C3:  BCF    06.1
07C4:  NOP
07C5:  BSF    06.0
07C6:  MOVLW  03
07C7:  MOVWF  77
07C8:  DECFSZ 77,F
07C9:  GOTO   7C8
07CA:  MOVLW  03
07CB:  MOVWF  77
07CC:  DECFSZ 77,F
07CD:  GOTO   7CC
07CE:  BSF    06.1
07CF:  BCF    03.5
07D0:  BTFSS  06.1
07D1:  GOTO   7D0
07D2:  CLRF   78
07D3:  MOVLW  03
07D4:  MOVWF  77
07D5:  DECFSZ 77,F
07D6:  GOTO   7D5
07D7:  BTFSC  06.0
07D8:  BSF    78.0
07D9:  BCF    06.1
07DA:  BSF    03.5
07DB:  BCF    06.1
07DC:  BCF    03.5
07DD:  BCF    06.0
07DE:  BSF    03.5
07DF:  BCF    06.0
07E0:  BCF    03.5
07E1:  RETURN
*
08CC:  MOVLW  08
08CD:  MOVWF  56
08CE:  MOVF   77,W
08CF:  MOVWF  57
08D0:  BSF    03.5
08D1:  BSF    06.0
08D2:  MOVLW  03
08D3:  MOVWF  77
08D4:  DECFSZ 77,F
08D5:  GOTO   0D4
08D6:  BSF    06.1
08D7:  BCF    03.5
08D8:  BTFSS  06.1
08D9:  GOTO   0D8
08DA:  BTFSC  06.0
08DB:  BSF    03.0
08DC:  BTFSS  06.0
08DD:  BCF    03.0
08DE:  RLF    78,F
08DF:  MOVLW  04
08E0:  MOVWF  77
08E1:  DECFSZ 77,F
08E2:  GOTO   0E1
08E3:  BSF    03.5
08E4:  BCF    06.1
08E5:  BCF    03.5
08E6:  BCF    06.1
08E7:  DECFSZ 56,F
08E8:  GOTO   0D0
08E9:  BSF    03.5
08EA:  BSF    06.0
08EB:  MOVLW  03
08EC:  MOVWF  77
08ED:  DECFSZ 77,F
08EE:  GOTO   0ED
08EF:  BCF    03.5
08F0:  BCF    06.0
08F1:  MOVF   57,W
08F2:  BTFSC  03.2
08F3:  GOTO   0F7
08F4:  BSF    03.5
08F5:  BCF    06.0
08F6:  BCF    03.5
08F7:  NOP
08F8:  BSF    03.5
08F9:  BSF    06.1
08FA:  BCF    03.5
08FB:  BTFSS  06.1
08FC:  GOTO   0FB
08FD:  MOVLW  04
08FE:  MOVWF  77
08FF:  DECFSZ 77,F
0900:  GOTO   0FF
0901:  BCF    06.1
0902:  BSF    03.5
0903:  BCF    06.1
0904:  MOVLW  03
0905:  MOVWF  77
0906:  DECFSZ 77,F
0907:  GOTO   106
0908:  BCF    03.5
0909:  BCF    06.0
090A:  BSF    03.5
090B:  BCF    06.0
....................  
.................... //========================== 
.................... // initial DS1307 
.................... //========================== 
.................... void init_DS1307() 
.................... { 
....................    output_float(DS1307_SCL); 
....................    output_float(DS1307_SDA); 
.................... } 
.................... //========================== 
.................... // write data one byte to 
.................... // DS1307 
.................... //========================== 
.................... void write_DS1307(byte address, BYTE data) 
.................... { 
....................    short int status; 
....................    char x; 
....................    i2c_start(); 
*
0800:  BSF    03.5
0801:  BSF    06.0
0802:  MOVLW  04
0803:  MOVWF  77
0804:  DECFSZ 77,F
0805:  GOTO   004
0806:  BSF    06.1
0807:  MOVLW  03
0808:  MOVWF  77
0809:  DECFSZ 77,F
080A:  GOTO   009
080B:  BCF    03.5
080C:  BCF    06.0
080D:  BSF    03.5
080E:  BCF    06.0
080F:  MOVLW  04
0810:  MOVWF  77
0811:  DECFSZ 77,F
0812:  GOTO   011
0813:  BCF    03.5
0814:  BCF    06.1
0815:  BSF    03.5
0816:  BCF    06.1
....................    i2c_write(0xd0); 
0817:  MOVLW  D0
0818:  BCF    03.5
0819:  MOVWF  58
081A:  BCF    0A.3
081B:  CALL   79C
081C:  BSF    0A.3
....................    i2c_write(address); 
081D:  MOVF   54,W
081E:  MOVWF  58
081F:  BCF    0A.3
0820:  CALL   79C
0821:  BSF    0A.3
....................    i2c_write(data); 
0822:  MOVF   55,W
0823:  MOVWF  58
0824:  BCF    0A.3
0825:  CALL   79C
0826:  BSF    0A.3
....................    i2c_stop(); 
0827:  BSF    03.5
0828:  BCF    06.0
0829:  NOP
082A:  BSF    06.1
082B:  BCF    03.5
082C:  BTFSS  06.1
082D:  GOTO   02C
082E:  MOVLW  04
082F:  MOVWF  77
0830:  DECFSZ 77,F
0831:  GOTO   030
0832:  GOTO   033
0833:  NOP
0834:  BSF    03.5
0835:  BSF    06.0
0836:  MOVLW  04
0837:  MOVWF  77
0838:  DECFSZ 77,F
0839:  GOTO   038
....................    i2c_start(); 
083A:  BSF    06.0
083B:  MOVLW  04
083C:  MOVWF  77
083D:  DECFSZ 77,F
083E:  GOTO   03D
083F:  BSF    06.1
0840:  MOVLW  03
0841:  MOVWF  77
0842:  DECFSZ 77,F
0843:  GOTO   042
0844:  BCF    03.5
0845:  BCF    06.0
0846:  BSF    03.5
0847:  BCF    06.0
0848:  MOVLW  04
0849:  MOVWF  77
084A:  DECFSZ 77,F
084B:  GOTO   04A
084C:  BCF    03.5
084D:  BCF    06.1
084E:  BSF    03.5
084F:  BCF    06.1
....................    status=i2c_write(0xd0); 
0850:  MOVLW  D0
0851:  BCF    03.5
0852:  MOVWF  58
0853:  BCF    0A.3
0854:  CALL   79C
0855:  BSF    0A.3
0856:  MOVF   78,W
0857:  BCF    56.0
0858:  BTFSC  78.0
0859:  BSF    56.0
....................    x = 0xd0; 
085A:  MOVLW  D0
085B:  MOVWF  57
....................    while(status==1 || x<5) 
085C:  BTFSC  56.0
085D:  GOTO   062
085E:  MOVF   57,W
085F:  SUBLW  04
0860:  BTFSS  03.0
0861:  GOTO   087
....................    { 
....................       i2c_start(); 
0862:  BSF    03.5
0863:  BSF    06.0
0864:  MOVLW  04
0865:  MOVWF  77
0866:  DECFSZ 77,F
0867:  GOTO   066
0868:  BSF    06.1
0869:  MOVLW  03
086A:  MOVWF  77
086B:  DECFSZ 77,F
086C:  GOTO   06B
086D:  BCF    03.5
086E:  BTFSS  06.1
086F:  GOTO   06E
0870:  BCF    06.0
0871:  BSF    03.5
0872:  BCF    06.0
0873:  MOVLW  04
0874:  MOVWF  77
0875:  DECFSZ 77,F
0876:  GOTO   075
0877:  BCF    03.5
0878:  BCF    06.1
0879:  BSF    03.5
087A:  BCF    06.1
....................       status=i2c_write(0xd0); 
087B:  MOVLW  D0
087C:  BCF    03.5
087D:  MOVWF  58
087E:  BCF    0A.3
087F:  CALL   79C
0880:  BSF    0A.3
0881:  MOVF   78,W
0882:  BCF    56.0
0883:  BTFSC  78.0
0884:  BSF    56.0
....................       x++; 
0885:  INCF   57,F
0886:  GOTO   05C
....................    } 
0887:  RETURN
.................... } 
.................... //========================== 
.................... // read data one byte from DS1307 
.................... //========================== 
.................... BYTE read_DS1307(byte address) 
.................... { 
....................    BYTE data; 
....................    i2c_start(); 
0888:  BSF    03.5
0889:  BSF    06.0
088A:  MOVLW  04
088B:  MOVWF  77
088C:  DECFSZ 77,F
088D:  GOTO   08C
088E:  BSF    06.1
088F:  MOVLW  03
0890:  MOVWF  77
0891:  DECFSZ 77,F
0892:  GOTO   091
0893:  BCF    03.5
0894:  BTFSS  06.1
0895:  GOTO   094
0896:  BCF    06.0
0897:  BSF    03.5
0898:  BCF    06.0
0899:  MOVLW  04
089A:  MOVWF  77
089B:  DECFSZ 77,F
089C:  GOTO   09B
089D:  BCF    03.5
089E:  BCF    06.1
089F:  BSF    03.5
08A0:  BCF    06.1
....................    i2c_write(0xd0); 
08A1:  MOVLW  D0
08A2:  BCF    03.5
08A3:  MOVWF  58
08A4:  BCF    0A.3
08A5:  CALL   79C
08A6:  BSF    0A.3
....................    i2c_write(address); 
08A7:  MOVF   53,W
08A8:  MOVWF  58
08A9:  BCF    0A.3
08AA:  CALL   79C
08AB:  BSF    0A.3
....................    i2c_start(); 
08AC:  BSF    03.5
08AD:  BSF    06.0
08AE:  MOVLW  04
08AF:  MOVWF  77
08B0:  DECFSZ 77,F
08B1:  GOTO   0B0
08B2:  BSF    06.1
08B3:  MOVLW  03
08B4:  MOVWF  77
08B5:  DECFSZ 77,F
08B6:  GOTO   0B5
08B7:  BCF    03.5
08B8:  BTFSS  06.1
08B9:  GOTO   0B8
08BA:  BCF    06.0
08BB:  BSF    03.5
08BC:  BCF    06.0
08BD:  MOVLW  04
08BE:  MOVWF  77
08BF:  DECFSZ 77,F
08C0:  GOTO   0BF
08C1:  BCF    03.5
08C2:  BCF    06.1
08C3:  BSF    03.5
08C4:  BCF    06.1
....................    i2c_write(0xd1); 
08C5:  MOVLW  D1
08C6:  BCF    03.5
08C7:  MOVWF  58
08C8:  BCF    0A.3
08C9:  CALL   79C
08CA:  BSF    0A.3
....................    data=i2c_read(0); 
08CB:  CLRF   77
*
090C:  MOVF   78,W
090D:  BCF    03.5
090E:  MOVWF  54
....................    i2c_stop(); 
090F:  BSF    03.5
0910:  BCF    06.0
0911:  NOP
0912:  BSF    06.1
0913:  BCF    03.5
0914:  BTFSS  06.1
0915:  GOTO   114
0916:  MOVLW  04
0917:  MOVWF  77
0918:  DECFSZ 77,F
0919:  GOTO   118
091A:  GOTO   11B
091B:  NOP
091C:  BSF    03.5
091D:  BSF    06.0
091E:  MOVLW  04
091F:  MOVWF  77
0920:  DECFSZ 77,F
0921:  GOTO   120
....................    return(data); 
0922:  BCF    03.5
0923:  MOVF   54,W
0924:  MOVWF  78
0925:  RETURN
.................... } 
....................  
.................... #include "conversion.c"      //konwersje liczbowe 
.................... // Convert normal decimal numbers to binary coded decimal 
.................... byte decToBcd(byte val) 
.................... { 
....................   return ( (val/10*16) + (val%10) ); 
*
1535:  MOVF   53,W
1536:  MOVWF  5C
1537:  MOVLW  0A
1538:  MOVWF  5D
*
154D:  SWAPF  78,W
154E:  MOVWF  54
154F:  MOVLW  F0
1550:  ANDWF  54,F
1551:  MOVF   53,W
1552:  MOVWF  5C
1553:  MOVLW  0A
1554:  MOVWF  5D
*
1569:  MOVF   77,W
156A:  ADDWF  54,W
156B:  MOVWF  78
*
1579:  MOVF   53,W
157A:  MOVWF  5C
157B:  MOVLW  0A
157C:  MOVWF  5D
*
1591:  SWAPF  78,W
1592:  MOVWF  54
1593:  MOVLW  F0
1594:  ANDWF  54,F
1595:  MOVF   53,W
1596:  MOVWF  5C
1597:  MOVLW  0A
1598:  MOVWF  5D
*
15AD:  MOVF   77,W
15AE:  ADDWF  54,W
15AF:  MOVWF  78
*
15BC:  MOVF   53,W
15BD:  MOVWF  5C
15BE:  MOVLW  0A
15BF:  MOVWF  5D
*
15D4:  SWAPF  78,W
15D5:  MOVWF  54
15D6:  MOVLW  F0
15D7:  ANDWF  54,F
15D8:  MOVF   53,W
15D9:  MOVWF  5C
15DA:  MOVLW  0A
15DB:  MOVWF  5D
*
15F0:  MOVF   77,W
15F1:  ADDWF  54,W
15F2:  MOVWF  78
*
1600:  MOVF   53,W
1601:  MOVWF  5C
1602:  MOVLW  0A
1603:  MOVWF  5D
*
1618:  SWAPF  78,W
1619:  MOVWF  54
161A:  MOVLW  F0
161B:  ANDWF  54,F
161C:  MOVF   53,W
161D:  MOVWF  5C
161E:  MOVLW  0A
161F:  MOVWF  5D
*
1634:  MOVF   77,W
1635:  ADDWF  54,W
1636:  MOVWF  78
*
1644:  MOVF   53,W
1645:  MOVWF  5C
1646:  MOVLW  0A
1647:  MOVWF  5D
*
165C:  SWAPF  78,W
165D:  MOVWF  54
165E:  MOVLW  F0
165F:  ANDWF  54,F
1660:  MOVF   53,W
1661:  MOVWF  5C
1662:  MOVLW  0A
1663:  MOVWF  5D
*
1678:  MOVF   77,W
1679:  ADDWF  54,W
167A:  MOVWF  78
*
1687:  MOVF   53,W
1688:  MOVWF  5C
1689:  MOVLW  0A
168A:  MOVWF  5D
*
169F:  SWAPF  78,W
16A0:  MOVWF  54
16A1:  MOVLW  F0
16A2:  ANDWF  54,F
16A3:  MOVF   53,W
16A4:  MOVWF  5C
16A5:  MOVLW  0A
16A6:  MOVWF  5D
*
16BB:  MOVF   77,W
16BC:  ADDWF  54,W
16BD:  MOVWF  78
.................... } 
....................  
.................... // Convert binary coded decimal to normal decimal numbers 
.................... byte bcdToDec(byte val) 
.................... { 
....................   return ( (val/16*10) + (val%16) ); 
*
0951:  SWAPF  54,W
0952:  MOVWF  77
0953:  MOVLW  0F
0954:  ANDWF  77,F
0955:  MOVF   77,W
0956:  MOVWF  56
0957:  MOVWF  57
0958:  MOVLW  0A
0959:  MOVWF  58
095A:  CALL   126
095B:  MOVF   78,W
095C:  MOVWF  55
095D:  MOVF   54,W
095E:  ANDLW  0F
095F:  ADDWF  78,W
0960:  MOVWF  78
*
096F:  SWAPF  54,W
0970:  MOVWF  77
0971:  MOVLW  0F
0972:  ANDWF  77,F
0973:  MOVF   77,W
0974:  MOVWF  56
0975:  MOVWF  57
0976:  MOVLW  0A
0977:  MOVWF  58
0978:  CALL   126
0979:  MOVF   78,W
097A:  MOVWF  55
097B:  MOVF   54,W
097C:  ANDLW  0F
097D:  ADDWF  78,W
097E:  MOVWF  78
*
098D:  SWAPF  54,W
098E:  MOVWF  77
098F:  MOVLW  0F
0990:  ANDWF  77,F
0991:  MOVF   77,W
0992:  MOVWF  56
0993:  MOVWF  57
0994:  MOVLW  0A
0995:  MOVWF  58
0996:  CALL   126
0997:  MOVF   78,W
0998:  MOVWF  55
0999:  MOVF   54,W
099A:  ANDLW  0F
099B:  ADDWF  78,W
099C:  MOVWF  78
.................... } 
....................  
.................... #include "drv\ds1820.c"     //termometry na 1wire 
....................    /*** FILEHEADER **************************************************************** 
....................  * 
....................  *    FILENAME:    ds1820.h 
....................  *    DATE:        25.02.2005 
....................  *    AUTHOR:      Christian Stadler 
....................  * 
....................  *    DESCRIPTION: Driver for DS1820 1-Wire Temperature sensor (Dallas) 
....................  * 
....................  ******************************************************************************/ 
....................  
.................... /*** HISTORY OF CHANGE ********************************************************* 
....................  * 
....................  *    $Log: /pic/_drv/ds1820.h $ 
....................  *  
....................  * 9     13.11.10 20:02 Stadler 
....................  * - changed interrupt lock and delay functions to #defines to remove 
....................  * function call overhead 
....................  *  
....................  * 8     6.11.10 10:24 Stadler 
....................  * - adjusted 1-wire timing 
....................  *  
....................  * 7     5.11.10 22:55 Stadler 
....................  * - changed driver API 
....................  *  
....................  * 6     5.11.10 21:59 Stadler 
....................  * - added DS18B20 support 
....................  * - fixed problem with ROM search algorithm 
....................  *  
....................  * 5     2.11.10 20:25 Stadler 
....................  * - changed function DS1820_FindFirstDev to DS1820_FindFirstDevice 
....................  * - changed function DS1820_FindNextDev to DS1820_FindNextDevice 
....................  * - updated code style 
....................  *  
....................  * 4     31.10.10 17:12 Stadler 
....................  * - introduced DS1820_DelayUs 
....................  *  
....................  * 3     25.10.10 13:09 Stadler 
....................  * - added interrupt lock 
....................  *  
....................  * 2     12.03.05 11:24 Stadler 
....................  * - added EEPROM write function 
....................  * - added "Search ROM Algorithm" to control multiple devices 
....................  * 
....................  * 1     26.02.05 18:18 Stadler 
....................  * Driver for DS1820 1-Wire Temperature sensor (Dallas) 
....................  * 
....................  ******************************************************************************/ 
....................  
.................... #ifndef _DS1820_H 
.................... #define _DS1820_H 
....................  
....................  
.................... /* check configuration of driver  
.................... #ifndef DS1820_DATAPIN 
.................... #error DS1820 data pin not defined! 
.................... #endif 
.................... */ 
....................  
.................... #define TEMP_RES              0x100 /* temperature resolution => 1/256C = 0.0039C */ 
....................  
....................  
.................... /* -------------------------------------------------------------------------- */ 
.................... /*                         DS1820 Timing Parameters                           */ 
.................... /* -------------------------------------------------------------------------- */ 
....................  
.................... #define DS1820_RST_PULSE       480   /* master reset pulse time in [us] */ 
.................... #define DS1820_MSTR_BITSTART   2     /* delay time for bit start by master */ 
.................... #define DS1820_PRESENCE_WAIT   40    /* delay after master reset pulse in [us] */ 
.................... #define DS1820_PRESENCE_FIN    480   /* dealy after reading of presence pulse [us] */ 
.................... #define DS1820_BITREAD_DLY     5     /* bit read delay */ 
.................... #define DS1820_BITWRITE_DLY    100   /* bit write delay */ 
....................  
....................  
.................... /* -------------------------------------------------------------------------- */ 
.................... /*                            DS1820 Registers                                */ 
.................... /* -------------------------------------------------------------------------- */ 
....................  
.................... #define DS1820_REG_TEMPLSB    0 
.................... #define DS1820_REG_TEMPMSB    1 
.................... #define DS1820_REG_CNTREMAIN  6 
.................... #define DS1820_REG_CNTPERSEC  7 
.................... #define DS1820_SCRPADMEM_LEN  9     /* length of scratchpad memory */ 
....................  
.................... #define DS1820_ADDR_LEN       8 
....................  
....................  
.................... /* -------------------------------------------------------------------------- */ 
.................... /*                            DS1820 Commands                                 */ 
.................... /* -------------------------------------------------------------------------- */ 
....................  
.................... #define DS1820_CMD_SEARCHROM     0xF0 
.................... #define DS1820_CMD_READROM       0x33 
.................... #define DS1820_CMD_MATCHROM      0x55 
.................... #define DS1820_CMD_SKIPROM       0xCC 
.................... #define DS1820_CMD_ALARMSEARCH   0xEC 
.................... #define DS1820_CMD_CONVERTTEMP   0x44 
.................... #define DS1820_CMD_WRITESCRPAD   0x4E 
.................... #define DS1820_CMD_READSCRPAD    0xBE 
.................... #define DS1820_CMD_COPYSCRPAD    0x48 
.................... #define DS1820_CMD_RECALLEE      0xB8 
....................  
....................  
.................... #define DS1820_FAMILY_CODE_DS18B20      0x28 
.................... #define DS1820_FAMILY_CODE_DS18S20      0x10 
....................  
....................  
.................... /* -------------------------------------------------------------------------- */ 
.................... /*                            static variables                                */ 
.................... /* -------------------------------------------------------------------------- */ 
.................... #define BYTE int  
.................... #define bool short int  
....................  
.................... #define uint8 int8 
.................... #define uint16 int16 
.................... #define sint8 int8 
.................... #define sint16 int16 
....................  
.................... static bool bDoneFlag; 
*
1950:  BCF    03.5
1951:  BCF    2D.1
.................... static uint8 nLastDiscrepancy_u8; 
1952:  CLRF   3F
.................... static uint8 nRomAddr_au8[DS1820_ADDR_LEN]; 
1953:  CLRF   40
1954:  CLRF   41
1955:  CLRF   42
1956:  CLRF   43
1957:  CLRF   44
1958:  CLRF   45
1959:  CLRF   46
195A:  CLRF   47
....................  
....................  
....................  
.................... /* -------------------------------------------------------------------------- */ 
.................... /*                           Low-Level Functions                              */ 
.................... /* -------------------------------------------------------------------------- */ 
....................  
....................  
.................... /******************************************************************************* 
....................  * FUNCTION:   DS1820_DelayUs 
....................  * PURPOSE:    Delay for the given number of micro seconds. 
....................  * 
....................  * INPUT:      dly_us      number of micro seconds to delay 
....................  * OUTPUT:     - 
....................  * RETURN:     - 
....................  ******************************************************************************/ 
.................... #define DS1820_DelayUs(dly_us)       delay_us(dly_us) 
....................  
....................  
.................... /******************************************************************************* 
....................  * FUNCTION:   DS1820_DelayMs 
....................  * PURPOSE:    Delay for the given number of milliseconds. 
....................  * 
....................  * INPUT:      dly_ms      number of milliseconds to delay 
....................  * OUTPUT:     - 
....................  * RETURN:     - 
....................  ******************************************************************************/ 
.................... #define DS1820_DelayMs(dly_ms)   delay_ms(dly_ms) 
....................  
....................  
.................... /******************************************************************************* 
....................  * FUNCTION:   DS1820_DisableInterrupts 
....................  * PURPOSE:    Disable interrupts 
....................  * 
....................  * INPUT:      - 
....................  * OUTPUT:     - 
....................  * RETURN:     - 
....................  ******************************************************************************/ 
.................... #ifdef DS1820_INTERRUPT_LOCK 
.................... #define DS1820_DisableInterrupts()  disable_interrupts(GLOBAL) 
.................... #else 
.................... #define DS1820_DisableInterrupts() 
.................... #endif 
....................  
....................  
....................  
.................... /******************************************************************************* 
....................  * FUNCTION:   DS1820_EnableInterrupts 
....................  * PURPOSE:    Enable interrupts 
....................  * 
....................  * INPUT:      - 
....................  * OUTPUT:     - 
....................  * RETURN:     - 
....................  ******************************************************************************/ 
.................... #ifdef DS1820_INTERRUPT_LOCK 
.................... #define DS1820_EnableInterrupts()   enable_interrupts(GLOBAL) 
.................... #else 
.................... #define DS1820_EnableInterrupts() 
.................... #endif 
....................  
....................  
.................... /******************************************************************************* 
....................  * FUNCTION:   DS1820_Reset 
....................  * PURPOSE:    Initializes the DS1820 device. 
....................  * 
....................  * INPUT:      - 
....................  * OUTPUT:     - 
....................  * RETURN:     FALSE if at least one device is on the 1-wire bus, TRUE otherwise 
....................  ******************************************************************************/ 
.................... bool DS1820_Reset(void) 
.................... { 
....................    bool bPresPulse; 
....................  
....................    DS1820_DisableInterrupts(); 
....................     
....................    /* reset pulse */ 
....................    output_low(DS1820_DATAPIN); 
*
0496:  BSF    03.5
0497:  BCF    06.3
0498:  BCF    03.5
0499:  BCF    06.3
*
09A7:  BSF    03.5
09A8:  BCF    06.3
09A9:  BCF    03.5
09AA:  BCF    06.3
*
0ADF:  BSF    03.5
0AE0:  BCF    06.3
0AE1:  BCF    03.5
0AE2:  BCF    06.3
....................    DS1820_DelayUs(DS1820_RST_PULSE); 
*
049A:  MOVLW  02
049B:  MOVWF  62
049C:  MOVLW  EF
049D:  MOVWF  63
*
04AC:  DECFSZ 62,F
04AD:  GOTO   49C
*
09AB:  MOVLW  02
09AC:  MOVWF  62
09AD:  MOVLW  EF
09AE:  MOVWF  63
*
09BD:  DECFSZ 62,F
09BE:  GOTO   1AD
*
0AE3:  MOVLW  02
0AE4:  MOVWF  62
0AE5:  MOVLW  EF
0AE6:  MOVWF  63
*
0AF5:  DECFSZ 62,F
0AF6:  GOTO   2E5
....................    output_high(DS1820_DATAPIN); 
*
04AE:  BSF    03.5
04AF:  BCF    06.3
04B0:  BCF    03.5
04B1:  BSF    06.3
*
09BF:  BSF    03.5
09C0:  BCF    06.3
09C1:  BCF    03.5
09C2:  BSF    06.3
*
0AF7:  BSF    03.5
0AF8:  BCF    06.3
0AF9:  BCF    03.5
0AFA:  BSF    06.3
....................  
....................    /* wait until pullup pull 1-wire bus to high */ 
....................    DS1820_DelayUs(DS1820_PRESENCE_WAIT); 
*
04B2:  MOVLW  42
04B3:  MOVWF  77
04B4:  DECFSZ 77,F
04B5:  GOTO   4B4
04B6:  NOP
*
09C3:  MOVLW  42
09C4:  MOVWF  77
09C5:  DECFSZ 77,F
09C6:  GOTO   1C5
09C7:  NOP
*
0AFB:  MOVLW  42
0AFC:  MOVWF  77
0AFD:  DECFSZ 77,F
0AFE:  GOTO   2FD
0AFF:  NOP
....................  
....................    /* get presence pulse */ 
....................    bPresPulse = input(DS1820_DATAPIN); 
*
04B7:  BSF    03.5
04B8:  BSF    06.3
04B9:  BCF    03.5
04BA:  BCF    61.0
04BB:  BTFSC  06.3
04BC:  BSF    61.0
*
09C8:  BSF    03.5
09C9:  BSF    06.3
09CA:  BCF    03.5
09CB:  BCF    61.0
09CC:  BTFSC  06.3
09CD:  BSF    61.0
*
0B00:  BSF    03.5
0B01:  BSF    06.3
0B02:  BCF    03.5
0B03:  BCF    61.0
0B04:  BTFSC  06.3
0B05:  BSF    61.0
....................  
....................    DS1820_DelayUs(424); 
*
04BD:  MOVLW  02
04BE:  MOVWF  62
04BF:  MOVLW  D3
04C0:  MOVWF  63
*
04CF:  DECFSZ 62,F
04D0:  GOTO   4BF
*
09CE:  MOVLW  02
09CF:  MOVWF  62
09D0:  MOVLW  D3
09D1:  MOVWF  63
*
09E0:  DECFSZ 62,F
09E1:  GOTO   1D0
*
0B06:  MOVLW  02
0B07:  MOVWF  62
0B08:  MOVLW  D3
0B09:  MOVWF  63
*
0B18:  DECFSZ 62,F
0B19:  GOTO   308
....................     
....................    DS1820_EnableInterrupts(); 
....................  
....................    return bPresPulse; 
*
04D1:  MOVLW  00
04D2:  BTFSC  61.0
04D3:  MOVLW  01
04D4:  MOVWF  78
*
09E2:  MOVLW  00
09E3:  BTFSC  61.0
09E4:  MOVLW  01
09E5:  MOVWF  78
*
0B1A:  MOVLW  00
0B1B:  BTFSC  61.0
0B1C:  MOVLW  01
0B1D:  MOVWF  78
.................... } 
....................  
....................  
.................... /******************************************************************************* 
....................  * FUNCTION:   DS1820_ReadBit 
....................  * PURPOSE:    Reads a single bit from the DS1820 device. 
....................  * 
....................  * INPUT:      - 
....................  * OUTPUT:     - 
....................  * RETURN:     bool        value of the bit which as been read form the DS1820 
....................  ******************************************************************************/ 
.................... bool DS1820_ReadBit(void) 
.................... { 
....................    bool bBit; 
....................  
....................    DS1820_DisableInterrupts(); 
....................     
....................    output_low(DS1820_DATAPIN); 
*
0518:  BSF    03.5
0519:  BCF    06.3
051A:  BCF    03.5
051B:  BCF    06.3
*
053D:  BSF    03.5
053E:  BCF    06.3
053F:  BCF    03.5
0540:  BCF    06.3
*
0C1F:  BSF    03.5
0C20:  BCF    06.3
0C21:  BCF    03.5
0C22:  BCF    06.3
....................    DS1820_DelayUs(DS1820_MSTR_BITSTART); 
*
051C:  MOVLW  02
051D:  MOVWF  77
051E:  DECFSZ 77,F
051F:  GOTO   51E
0520:  GOTO   521
0521:  NOP
*
0541:  MOVLW  02
0542:  MOVWF  77
0543:  DECFSZ 77,F
0544:  GOTO   543
0545:  GOTO   546
0546:  NOP
*
0C23:  MOVLW  02
0C24:  MOVWF  77
0C25:  DECFSZ 77,F
0C26:  GOTO   425
0C27:  GOTO   428
0C28:  NOP
....................    input(DS1820_DATAPIN); 
*
0522:  BSF    03.5
0523:  BSF    06.3
*
0547:  BSF    03.5
0548:  BSF    06.3
*
0C29:  BSF    03.5
0C2A:  BSF    06.3
....................    DS1820_DelayUs(DS1820_BITREAD_DLY); 
*
0524:  MOVLW  07
0525:  MOVWF  77
0526:  DECFSZ 77,F
0527:  GOTO   526
0528:  GOTO   529
0529:  NOP
*
0549:  MOVLW  07
054A:  MOVWF  77
054B:  DECFSZ 77,F
054C:  GOTO   54B
054D:  GOTO   54E
054E:  NOP
*
0C2B:  MOVLW  07
0C2C:  MOVWF  77
0C2D:  DECFSZ 77,F
0C2E:  GOTO   42D
0C2F:  GOTO   430
0C30:  NOP
....................  
....................    bBit = input(DS1820_DATAPIN); 
*
052A:  BSF    06.3
052B:  BCF    03.5
052C:  BCF    65.0
052D:  BTFSC  06.3
052E:  BSF    65.0
*
054F:  BSF    06.3
0550:  BCF    03.5
0551:  BCF    65.0
0552:  BTFSC  06.3
0553:  BSF    65.0
*
0C31:  BSF    06.3
0C32:  BCF    03.5
0C33:  BCF    65.0
0C34:  BTFSC  06.3
0C35:  BSF    65.0
....................     
....................    DS1820_EnableInterrupts(); 
....................  
....................    return (bBit); 
*
052F:  MOVLW  00
0530:  BTFSC  65.0
0531:  MOVLW  01
0532:  MOVWF  78
*
0554:  MOVLW  00
0555:  BTFSC  65.0
0556:  MOVLW  01
0557:  MOVWF  78
*
0C36:  MOVLW  00
0C37:  BTFSC  65.0
0C38:  MOVLW  01
0C39:  MOVWF  78
.................... } 
....................  
....................  
.................... /******************************************************************************* 
....................  * FUNCTION:   DS1820_WriteBit 
....................  * PURPOSE:    Writes a single bit to the DS1820 device. 
....................  * 
....................  * INPUT:      bBit        value of bit to be written 
....................  * OUTPUT:     - 
....................  * RETURN:     - 
....................  ******************************************************************************/ 
.................... void DS1820_WriteBit(bool bBit) 
.................... { 
....................    DS1820_DisableInterrupts(); 
....................     
....................    output_low(DS1820_DATAPIN); 
*
04F5:  BSF    03.5
04F6:  BCF    06.3
04F7:  BCF    03.5
04F8:  BCF    06.3
*
059F:  BSF    03.5
05A0:  BCF    06.3
05A1:  BCF    03.5
05A2:  BCF    06.3
*
0A01:  BSF    03.5
0A02:  BCF    06.3
0A03:  BCF    03.5
0A04:  BCF    06.3
*
0A42:  BSF    03.5
0A43:  BCF    06.3
0A44:  BCF    03.5
0A45:  BCF    06.3
*
0A7B:  BSF    03.5
0A7C:  BCF    06.3
0A7D:  BCF    03.5
0A7E:  BCF    06.3
*
0AB5:  BSF    03.5
0AB6:  BCF    06.3
0AB7:  BCF    03.5
0AB8:  BCF    06.3
*
0B39:  BSF    03.5
0B3A:  BCF    06.3
0B3B:  BCF    03.5
0B3C:  BCF    06.3
*
0B7A:  BSF    03.5
0B7B:  BCF    06.3
0B7C:  BCF    03.5
0B7D:  BCF    06.3
*
0BB3:  BSF    03.5
0BB4:  BCF    06.3
0BB5:  BCF    03.5
0BB6:  BCF    06.3
*
0BE9:  BSF    03.5
0BEA:  BCF    06.3
0BEB:  BCF    03.5
0BEC:  BCF    06.3
....................    DS1820_DelayUs(DS1820_MSTR_BITSTART); 
*
04F9:  MOVLW  02
04FA:  MOVWF  77
04FB:  DECFSZ 77,F
04FC:  GOTO   4FB
04FD:  GOTO   4FE
04FE:  NOP
*
05A3:  MOVLW  02
05A4:  MOVWF  77
05A5:  DECFSZ 77,F
05A6:  GOTO   5A5
05A7:  GOTO   5A8
05A8:  NOP
*
0A05:  MOVLW  02
0A06:  MOVWF  77
0A07:  DECFSZ 77,F
0A08:  GOTO   207
0A09:  GOTO   20A
0A0A:  NOP
*
0A46:  MOVLW  02
0A47:  MOVWF  77
0A48:  DECFSZ 77,F
0A49:  GOTO   248
0A4A:  GOTO   24B
0A4B:  NOP
*
0A7F:  MOVLW  02
0A80:  MOVWF  77
0A81:  DECFSZ 77,F
0A82:  GOTO   281
0A83:  GOTO   284
0A84:  NOP
*
0AB9:  MOVLW  02
0ABA:  MOVWF  77
0ABB:  DECFSZ 77,F
0ABC:  GOTO   2BB
0ABD:  GOTO   2BE
0ABE:  NOP
*
0B3D:  MOVLW  02
0B3E:  MOVWF  77
0B3F:  DECFSZ 77,F
0B40:  GOTO   33F
0B41:  GOTO   342
0B42:  NOP
*
0B7E:  MOVLW  02
0B7F:  MOVWF  77
0B80:  DECFSZ 77,F
0B81:  GOTO   380
0B82:  GOTO   383
0B83:  NOP
*
0BB7:  MOVLW  02
0BB8:  MOVWF  77
0BB9:  DECFSZ 77,F
0BBA:  GOTO   3B9
0BBB:  GOTO   3BC
0BBC:  NOP
*
0BED:  MOVLW  02
0BEE:  MOVWF  77
0BEF:  DECFSZ 77,F
0BF0:  GOTO   3EF
0BF1:  GOTO   3F2
0BF2:  NOP
....................  
....................    if (bBit != FALSE) 
*
04FF:  MOVF   67,F
0500:  BTFSC  03.2
0501:  GOTO   506
*
05A9:  MOVF   67,F
05AA:  BTFSC  03.2
05AB:  GOTO   5B0
*
0A0B:  MOVF   67,F
0A0C:  BTFSC  03.2
0A0D:  GOTO   212
*
0A4C:  MOVF   67,F
0A4D:  BTFSC  03.2
0A4E:  GOTO   253
*
0A85:  MOVF   67,F
0A86:  BTFSC  03.2
0A87:  GOTO   28C
*
0ABF:  MOVF   67,F
0AC0:  BTFSC  03.2
0AC1:  GOTO   2C6
*
0B43:  MOVF   67,F
0B44:  BTFSC  03.2
0B45:  GOTO   34A
*
0B84:  MOVF   67,F
0B85:  BTFSC  03.2
0B86:  GOTO   38B
*
0BBD:  MOVF   67,F
0BBE:  BTFSC  03.2
0BBF:  GOTO   3C4
*
0BF3:  MOVF   67,F
0BF4:  BTFSC  03.2
0BF5:  GOTO   3FA
....................    { 
....................       output_high(DS1820_DATAPIN); 
*
0502:  BSF    03.5
0503:  BCF    06.3
0504:  BCF    03.5
0505:  BSF    06.3
*
05AC:  BSF    03.5
05AD:  BCF    06.3
05AE:  BCF    03.5
05AF:  BSF    06.3
*
0A0E:  BSF    03.5
0A0F:  BCF    06.3
0A10:  BCF    03.5
0A11:  BSF    06.3
*
0A4F:  BSF    03.5
0A50:  BCF    06.3
0A51:  BCF    03.5
0A52:  BSF    06.3
*
0A88:  BSF    03.5
0A89:  BCF    06.3
0A8A:  BCF    03.5
0A8B:  BSF    06.3
*
0AC2:  BSF    03.5
0AC3:  BCF    06.3
0AC4:  BCF    03.5
0AC5:  BSF    06.3
*
0B46:  BSF    03.5
0B47:  BCF    06.3
0B48:  BCF    03.5
0B49:  BSF    06.3
*
0B87:  BSF    03.5
0B88:  BCF    06.3
0B89:  BCF    03.5
0B8A:  BSF    06.3
*
0BC0:  BSF    03.5
0BC1:  BCF    06.3
0BC2:  BCF    03.5
0BC3:  BSF    06.3
*
0BF6:  BSF    03.5
0BF7:  BCF    06.3
0BF8:  BCF    03.5
0BF9:  BSF    06.3
....................    } 
....................  
....................    DS1820_DelayUs(DS1820_BITWRITE_DLY); 
*
0506:  MOVLW  A6
0507:  MOVWF  77
0508:  DECFSZ 77,F
0509:  GOTO   508
050A:  NOP
*
05B0:  MOVLW  A6
05B1:  MOVWF  77
05B2:  DECFSZ 77,F
05B3:  GOTO   5B2
05B4:  NOP
*
0A12:  MOVLW  A6
0A13:  MOVWF  77
0A14:  DECFSZ 77,F
0A15:  GOTO   214
0A16:  NOP
*
0A53:  MOVLW  A6
0A54:  MOVWF  77
0A55:  DECFSZ 77,F
0A56:  GOTO   255
0A57:  NOP
*
0A8C:  MOVLW  A6
0A8D:  MOVWF  77
0A8E:  DECFSZ 77,F
0A8F:  GOTO   28E
0A90:  NOP
*
0AC6:  MOVLW  A6
0AC7:  MOVWF  77
0AC8:  DECFSZ 77,F
0AC9:  GOTO   2C8
0ACA:  NOP
*
0B4A:  MOVLW  A6
0B4B:  MOVWF  77
0B4C:  DECFSZ 77,F
0B4D:  GOTO   34C
0B4E:  NOP
*
0B8B:  MOVLW  A6
0B8C:  MOVWF  77
0B8D:  DECFSZ 77,F
0B8E:  GOTO   38D
0B8F:  NOP
*
0BC4:  MOVLW  A6
0BC5:  MOVWF  77
0BC6:  DECFSZ 77,F
0BC7:  GOTO   3C6
0BC8:  NOP
*
0BFA:  MOVLW  A6
0BFB:  MOVWF  77
0BFC:  DECFSZ 77,F
0BFD:  GOTO   3FC
0BFE:  NOP
....................    output_high(DS1820_DATAPIN); 
*
050B:  BSF    03.5
050C:  BCF    06.3
050D:  BCF    03.5
050E:  BSF    06.3
*
05B5:  BSF    03.5
05B6:  BCF    06.3
05B7:  BCF    03.5
05B8:  BSF    06.3
*
0A17:  BSF    03.5
0A18:  BCF    06.3
0A19:  BCF    03.5
0A1A:  BSF    06.3
*
0A58:  BSF    03.5
0A59:  BCF    06.3
0A5A:  BCF    03.5
0A5B:  BSF    06.3
*
0A91:  BSF    03.5
0A92:  BCF    06.3
0A93:  BCF    03.5
0A94:  BSF    06.3
*
0ACB:  BSF    03.5
0ACC:  BCF    06.3
0ACD:  BCF    03.5
0ACE:  BSF    06.3
*
0B4F:  BSF    03.5
0B50:  BCF    06.3
0B51:  BCF    03.5
0B52:  BSF    06.3
*
0B90:  BSF    03.5
0B91:  BCF    06.3
0B92:  BCF    03.5
0B93:  BSF    06.3
*
0BC9:  BSF    03.5
0BCA:  BCF    06.3
0BCB:  BCF    03.5
0BCC:  BSF    06.3
*
0BFF:  BSF    03.5
0C00:  BCF    06.3
0C01:  BCF    03.5
0C02:  BSF    06.3
....................     
....................    DS1820_EnableInterrupts(); 
.................... } 
....................  
....................  
.................... /******************************************************************************* 
....................  * FUNCTION:   DS1820_ReadByte 
....................  * PURPOSE:    Reads a single byte from the DS1820 device. 
....................  * 
....................  * INPUT:      - 
....................  * OUTPUT:     - 
....................  * RETURN:     uint8          byte which has been read from the DS1820 
....................  ******************************************************************************/ 
.................... uint8 DS1820_ReadByte(void) 
*
0C19:  CLRF   64
.................... { 
....................    uint8 i; 
....................    uint8 value = 0; 
....................  
....................    for (i=0 ; i < 8; i++) 
0C1A:  CLRF   63
0C1B:  MOVF   63,W
0C1C:  SUBLW  07
0C1D:  BTFSS  03.0
0C1E:  GOTO   450
....................    { 
....................       if ( DS1820_ReadBit() ) 
*
0C3A:  MOVF   78,F
0C3B:  BTFSC  03.2
0C3C:  GOTO   449
....................       { 
....................          value |= (1 << i); 
0C3D:  MOVLW  01
0C3E:  MOVWF  77
0C3F:  MOVF   63,W
0C40:  MOVWF  78
0C41:  BTFSC  03.2
0C42:  GOTO   447
0C43:  BCF    03.0
0C44:  RLF    77,F
0C45:  DECFSZ 78,F
0C46:  GOTO   443
0C47:  MOVF   77,W
0C48:  IORWF  64,F
....................       } 
....................       DS1820_DelayUs(120); 
0C49:  MOVLW  C7
0C4A:  MOVWF  77
0C4B:  DECFSZ 77,F
0C4C:  GOTO   44B
0C4D:  GOTO   44E
0C4E:  INCF   63,F
0C4F:  GOTO   41B
....................    } 
....................    return(value); 
0C50:  MOVF   64,W
0C51:  MOVWF  78
.................... } 
....................  
....................  
.................... /******************************************************************************* 
....................  * FUNCTION:   DS1820_WriteByte 
....................  * PURPOSE:    Writes a single byte to the DS1820 device. 
....................  * 
....................  * INPUT:      val_u8         byte to be written 
....................  * OUTPUT:     - 
....................  * RETURN:     - 
....................  ******************************************************************************/ 
.................... void DS1820_WriteByte(uint8 val_u8) 
.................... { 
....................    uint8 i; 
....................    uint8 temp; 
....................  
....................    for (i=0; i < 8; i++)      /* writes byte, one bit at a time */ 
*
04E2:  CLRF   65
04E3:  MOVF   65,W
04E4:  SUBLW  07
04E5:  BTFSS  03.0
04E6:  GOTO   511
*
09EE:  CLRF   65
09EF:  MOVF   65,W
09F0:  SUBLW  07
09F1:  BTFSS  03.0
09F2:  GOTO   21D
*
0A2F:  CLRF   65
0A30:  MOVF   65,W
0A31:  SUBLW  07
0A32:  BTFSS  03.0
0A33:  GOTO   25E
*
0A68:  CLRF   65
0A69:  MOVF   65,W
0A6A:  SUBLW  07
0A6B:  BTFSS  03.0
0A6C:  GOTO   297
*
0AA2:  CLRF   65
0AA3:  MOVF   65,W
0AA4:  SUBLW  07
0AA5:  BTFSS  03.0
0AA6:  GOTO   2D1
*
0B26:  CLRF   65
0B27:  MOVF   65,W
0B28:  SUBLW  07
0B29:  BTFSS  03.0
0B2A:  GOTO   355
*
0B67:  CLRF   65
0B68:  MOVF   65,W
0B69:  SUBLW  07
0B6A:  BTFSS  03.0
0B6B:  GOTO   396
*
0BA0:  CLRF   65
0BA1:  MOVF   65,W
0BA2:  SUBLW  07
0BA3:  BTFSS  03.0
0BA4:  GOTO   3CF
*
0BD6:  CLRF   65
0BD7:  MOVF   65,W
0BD8:  SUBLW  07
0BD9:  BTFSS  03.0
0BDA:  GOTO   405
....................    { 
....................       temp = val_u8 >> i;     /* shifts val right 'i' spaces */ 
*
04E7:  MOVF   64,W
04E8:  MOVWF  66
04E9:  MOVF   65,W
04EA:  MOVWF  78
04EB:  BTFSC  03.2
04EC:  GOTO   4F1
04ED:  BCF    03.0
04EE:  RRF    66,F
04EF:  DECFSZ 78,F
04F0:  GOTO   4ED
*
09F3:  MOVF   64,W
09F4:  MOVWF  66
09F5:  MOVF   65,W
09F6:  MOVWF  78
09F7:  BTFSC  03.2
09F8:  GOTO   1FD
09F9:  BCF    03.0
09FA:  RRF    66,F
09FB:  DECFSZ 78,F
09FC:  GOTO   1F9
*
0A34:  MOVF   64,W
0A35:  MOVWF  66
0A36:  MOVF   65,W
0A37:  MOVWF  78
0A38:  BTFSC  03.2
0A39:  GOTO   23E
0A3A:  BCF    03.0
0A3B:  RRF    66,F
0A3C:  DECFSZ 78,F
0A3D:  GOTO   23A
*
0A6D:  MOVF   64,W
0A6E:  MOVWF  66
0A6F:  MOVF   65,W
0A70:  MOVWF  78
0A71:  BTFSC  03.2
0A72:  GOTO   277
0A73:  BCF    03.0
0A74:  RRF    66,F
0A75:  DECFSZ 78,F
0A76:  GOTO   273
*
0AA7:  MOVF   64,W
0AA8:  MOVWF  66
0AA9:  MOVF   65,W
0AAA:  MOVWF  78
0AAB:  BTFSC  03.2
0AAC:  GOTO   2B1
0AAD:  BCF    03.0
0AAE:  RRF    66,F
0AAF:  DECFSZ 78,F
0AB0:  GOTO   2AD
*
0B2B:  MOVF   64,W
0B2C:  MOVWF  66
0B2D:  MOVF   65,W
0B2E:  MOVWF  78
0B2F:  BTFSC  03.2
0B30:  GOTO   335
0B31:  BCF    03.0
0B32:  RRF    66,F
0B33:  DECFSZ 78,F
0B34:  GOTO   331
*
0B6C:  MOVF   64,W
0B6D:  MOVWF  66
0B6E:  MOVF   65,W
0B6F:  MOVWF  78
0B70:  BTFSC  03.2
0B71:  GOTO   376
0B72:  BCF    03.0
0B73:  RRF    66,F
0B74:  DECFSZ 78,F
0B75:  GOTO   372
*
0BA5:  MOVF   64,W
0BA6:  MOVWF  66
0BA7:  MOVF   65,W
0BA8:  MOVWF  78
0BA9:  BTFSC  03.2
0BAA:  GOTO   3AF
0BAB:  BCF    03.0
0BAC:  RRF    66,F
0BAD:  DECFSZ 78,F
0BAE:  GOTO   3AB
*
0BDB:  MOVF   64,W
0BDC:  MOVWF  66
0BDD:  MOVF   65,W
0BDE:  MOVWF  78
0BDF:  BTFSC  03.2
0BE0:  GOTO   3E5
0BE1:  BCF    03.0
0BE2:  RRF    66,F
0BE3:  DECFSZ 78,F
0BE4:  GOTO   3E1
....................       temp &= 0x01;           /* copy that bit to temp */ 
*
04F1:  MOVLW  01
04F2:  ANDWF  66,F
*
09FD:  MOVLW  01
09FE:  ANDWF  66,F
*
0A3E:  MOVLW  01
0A3F:  ANDWF  66,F
*
0A77:  MOVLW  01
0A78:  ANDWF  66,F
*
0AB1:  MOVLW  01
0AB2:  ANDWF  66,F
*
0B35:  MOVLW  01
0B36:  ANDWF  66,F
*
0B76:  MOVLW  01
0B77:  ANDWF  66,F
*
0BAF:  MOVLW  01
0BB0:  ANDWF  66,F
*
0BE5:  MOVLW  01
0BE6:  ANDWF  66,F
....................       DS1820_WriteBit(temp);  /* write bit in temp into */ 
*
04F3:  MOVF   66,W
04F4:  MOVWF  67
*
050F:  INCF   65,F
0510:  GOTO   4E3
*
09FF:  MOVF   66,W
0A00:  MOVWF  67
*
0A1B:  INCF   65,F
0A1C:  GOTO   1EF
*
0A40:  MOVF   66,W
0A41:  MOVWF  67
*
0A5C:  INCF   65,F
0A5D:  GOTO   230
*
0A79:  MOVF   66,W
0A7A:  MOVWF  67
*
0A95:  INCF   65,F
0A96:  GOTO   269
*
0AB3:  MOVF   66,W
0AB4:  MOVWF  67
*
0ACF:  INCF   65,F
0AD0:  GOTO   2A3
*
0B37:  MOVF   66,W
0B38:  MOVWF  67
*
0B53:  INCF   65,F
0B54:  GOTO   327
*
0B78:  MOVF   66,W
0B79:  MOVWF  67
*
0B94:  INCF   65,F
0B95:  GOTO   368
*
0BB1:  MOVF   66,W
0BB2:  MOVWF  67
*
0BCD:  INCF   65,F
0BCE:  GOTO   3A1
*
0BE7:  MOVF   66,W
0BE8:  MOVWF  67
*
0C03:  INCF   65,F
0C04:  GOTO   3D7
....................    } 
....................  
....................    DS1820_DelayUs(105); 
*
0511:  MOVLW  AE
0512:  MOVWF  77
0513:  DECFSZ 77,F
0514:  GOTO   513
0515:  GOTO   516
*
0A1D:  MOVLW  AE
0A1E:  MOVWF  77
0A1F:  DECFSZ 77,F
0A20:  GOTO   21F
0A21:  GOTO   222
*
0A5E:  MOVLW  AE
0A5F:  MOVWF  77
0A60:  DECFSZ 77,F
0A61:  GOTO   260
0A62:  GOTO   263
*
0A97:  MOVLW  AE
0A98:  MOVWF  77
0A99:  DECFSZ 77,F
0A9A:  GOTO   299
0A9B:  GOTO   29C
*
0AD1:  MOVLW  AE
0AD2:  MOVWF  77
0AD3:  DECFSZ 77,F
0AD4:  GOTO   2D3
0AD5:  GOTO   2D6
*
0B55:  MOVLW  AE
0B56:  MOVWF  77
0B57:  DECFSZ 77,F
0B58:  GOTO   357
0B59:  GOTO   35A
*
0B96:  MOVLW  AE
0B97:  MOVWF  77
0B98:  DECFSZ 77,F
0B99:  GOTO   398
0B9A:  GOTO   39B
*
0BCF:  MOVLW  AE
0BD0:  MOVWF  77
0BD1:  DECFSZ 77,F
0BD2:  GOTO   3D1
0BD3:  GOTO   3D4
*
0C05:  MOVLW  AE
0C06:  MOVWF  77
0C07:  DECFSZ 77,F
0C08:  GOTO   407
0C09:  GOTO   40A
.................... } 
....................  
....................  
....................  
.................... /* -------------------------------------------------------------------------- */ 
.................... /*                             API Interface                                  */ 
.................... /* -------------------------------------------------------------------------- */ 
....................  
....................  
.................... /******************************************************************************* 
....................  * FUNCTION:   DS1820_AddrDevice 
....................  * PURPOSE:    Addresses a single or all devices on the 1-wire bus. 
....................  * 
....................  * INPUT:      nAddrMethod       use DS1820_CMD_MATCHROM to select a single 
....................  *                               device or DS1820_CMD_SKIPROM to select all 
....................  * OUTPUT:     - 
....................  * RETURN:     - 
....................  ******************************************************************************/ 
.................... void DS1820_AddrDevice(uint8 nAddrMethod) 
.................... { 
....................    uint8 i; 
....................     
....................    if (nAddrMethod == DS1820_CMD_MATCHROM) 
*
09E8:  MOVF   61,W
09E9:  SUBLW  55
09EA:  BTFSS  03.2
09EB:  GOTO   266
*
0B20:  MOVF   61,W
0B21:  SUBLW  55
0B22:  BTFSS  03.2
0B23:  GOTO   39E
....................    { 
....................       DS1820_WriteByte(DS1820_CMD_MATCHROM);     /* address single devices on bus */ 
*
09EC:  MOVLW  55
09ED:  MOVWF  64
*
0B24:  MOVLW  55
0B25:  MOVWF  64
....................       for (i = 0; i < DS1820_ADDR_LEN; i ++) 
*
0A22:  CLRF   62
0A23:  MOVF   62,W
0A24:  SUBLW  07
0A25:  BTFSS  03.0
0A26:  GOTO   265
*
0B5A:  CLRF   62
0B5B:  MOVF   62,W
0B5C:  SUBLW  07
0B5D:  BTFSS  03.0
0B5E:  GOTO   39D
....................       { 
....................          DS1820_WriteByte(nRomAddr_au8[i]); 
*
0A27:  MOVLW  40
0A28:  ADDWF  62,W
0A29:  MOVWF  04
0A2A:  BCF    03.7
0A2B:  MOVF   00,W
0A2C:  MOVWF  63
0A2D:  MOVF   63,W
0A2E:  MOVWF  64
*
0A63:  INCF   62,F
0A64:  GOTO   223
*
0B5F:  MOVLW  40
0B60:  ADDWF  62,W
0B61:  MOVWF  04
0B62:  BCF    03.7
0B63:  MOVF   00,W
0B64:  MOVWF  63
0B65:  MOVF   63,W
0B66:  MOVWF  64
*
0B9B:  INCF   62,F
0B9C:  GOTO   35B
....................       } 
....................    } 
*
0A65:  GOTO   29C
*
0B9D:  GOTO   3D4
....................    else 
....................    { 
....................       DS1820_WriteByte(DS1820_CMD_SKIPROM);     /* address all devices on bus */ 
*
0A66:  MOVLW  CC
0A67:  MOVWF  64
*
0B9E:  MOVLW  CC
0B9F:  MOVWF  64
....................    } 
.................... } 
....................  
....................  
.................... /******************************************************************************* 
....................  * FUNCTION:   DS1820_FindNextDevice 
....................  * PURPOSE:    Finds next device connected to the 1-wire bus. 
....................  * 
....................  * INPUT:      - 
....................  * OUTPUT:     nRomAddr_au8[]       ROM code of the next device 
....................  * RETURN:     bool                 TRUE if there are more devices on the 1-wire 
....................  *                                  bus, FALSE otherwise 
....................  ******************************************************************************/ 
.................... bool DS1820_FindNextDevice(void) 
*
0485:  MOVLW  01
0486:  MOVWF  55
0487:  MOVWF  56
0488:  CLRF   57
0489:  BCF    58.2
.................... { 
....................     uint8 state_u8; 
....................     uint8 byteidx_u8; 
....................     uint8 mask_u8 = 1; 
....................     uint8 bitpos_u8 = 1; 
....................     uint8 nDiscrepancyMarker_u8 = 0; 
....................     bool bit_b; 
....................     bool bStatus; 
....................     bool next_b = FALSE; 
....................  
....................     /* init ROM address */ 
....................     for (byteidx_u8=0; byteidx_u8 < 8; byteidx_u8 ++) 
048A:  CLRF   54
048B:  MOVF   54,W
048C:  SUBLW  07
048D:  BTFSS  03.0
048E:  GOTO   496
....................     { 
....................         nRomAddr_au8[byteidx_u8] = 0x00; 
048F:  MOVLW  40
0490:  ADDWF  54,W
0491:  MOVWF  04
0492:  BCF    03.7
0493:  CLRF   00
0494:  INCF   54,F
0495:  GOTO   48B
....................     } 
....................  
....................     bStatus = DS1820_Reset();        /* reset the 1-wire */ 
*
04D5:  BCF    58.1
04D6:  BTFSC  78.0
04D7:  BSF    58.1
....................  
....................     if (bStatus || bDoneFlag)        /* no device found */ 
04D8:  BTFSC  58.1
04D9:  GOTO   4DC
04DA:  BTFSS  2D.1
04DB:  GOTO   4E0
....................     { 
....................         nLastDiscrepancy_u8 = 0;     /* reset the search */ 
04DC:  CLRF   3F
....................         return FALSE; 
04DD:  MOVLW  00
04DE:  MOVWF  78
04DF:  GOTO   5D7
....................     } 
....................  
....................     /* send search rom command */ 
....................     DS1820_WriteByte(DS1820_CMD_SEARCHROM); 
04E0:  MOVLW  F0
04E1:  MOVWF  64
....................  
....................     byteidx_u8 = 0; 
*
0516:  CLRF   54
....................     do 
....................     { 
....................         state_u8 = 0; 
0517:  CLRF   53
....................  
....................         /* read bit */ 
....................         if ( DS1820_ReadBit() != 0 ) 
*
0533:  MOVF   78,F
0534:  BTFSC  03.2
0535:  GOTO   538
....................         { 
....................             state_u8 = 2; 
0536:  MOVLW  02
0537:  MOVWF  53
....................         } 
....................         DS1820_DelayUs(120); 
0538:  MOVLW  C7
0539:  MOVWF  77
053A:  DECFSZ 77,F
053B:  GOTO   53A
053C:  GOTO   53D
....................  
....................         /* read bit complement */ 
....................         if ( DS1820_ReadBit() != 0 ) 
*
0558:  MOVF   78,F
0559:  BTFSS  03.2
....................         { 
....................             state_u8 |= 1; 
055A:  BSF    53.0
....................         } 
....................         DS1820_DelayUs(120); 
055B:  MOVLW  C7
055C:  MOVWF  77
055D:  DECFSZ 77,F
055E:  GOTO   55D
055F:  GOTO   560
....................  
....................         /* description for values of state_u8: */ 
....................         /* 00    There are devices connected to the bus which have conflicting */ 
....................         /*       bits in the current ROM code bit position. */ 
....................         /* 01    All devices connected to the bus have a 0 in this bit position. */ 
....................         /* 10    All devices connected to the bus have a 1 in this bit position. */ 
....................         /* 11    There are no devices connected to the 1-wire bus. */ 
....................  
....................         /* if there are no devices on the bus */ 
....................         if (state_u8 == 3) 
0560:  MOVF   53,W
0561:  SUBLW  03
0562:  BTFSS  03.2
0563:  GOTO   566
....................         { 
....................             break; 
0564:  GOTO   5C6
....................         } 
0565:  GOTO   5C2
....................         else 
....................         { 
....................             /* devices have the same logical value at this position */ 
....................             if (state_u8 > 0) 
0566:  MOVF   53,F
0567:  BTFSC  03.2
0568:  GOTO   570
....................             { 
....................                 /* get bit value */ 
....................                 bit_b = (bool)(state_u8 >> 1); 
0569:  BCF    58.0
056A:  BCF    03.0
056B:  RRF    53,W
056C:  MOVWF  78
056D:  BTFSC  78.0
056E:  BSF    58.0
....................             } 
056F:  GOTO   587
....................             /* devices have confilcting bits in the current ROM code */ 
....................             else 
....................             { 
....................                 /* if there was a conflict on the last iteration */ 
....................                 if (bitpos_u8 < nLastDiscrepancy_u8) 
0570:  MOVF   3F,W
0571:  SUBWF  56,W
0572:  BTFSC  03.0
0573:  GOTO   57E
....................                 { 
....................                     /* take same bit as in last iteration */ 
....................                     bit_b = ( (nRomAddr_au8[byteidx_u8] & mask_u8) > 0 ); 
0574:  BCF    58.0
0575:  MOVLW  40
0576:  ADDWF  54,W
0577:  MOVWF  04
0578:  BCF    03.7
0579:  MOVF   00,W
057A:  ANDWF  55,W
057B:  BTFSS  03.2
057C:  BSF    58.0
....................                 } 
057D:  GOTO   583
....................                 else 
....................                 { 
....................                     bit_b = (bitpos_u8 == nLastDiscrepancy_u8); 
057E:  BCF    58.0
057F:  MOVF   3F,W
0580:  SUBWF  56,W
0581:  BTFSC  03.2
0582:  BSF    58.0
....................                 } 
....................  
....................                 if (bit_b == 0) 
0583:  BTFSC  58.0
0584:  GOTO   587
....................                 { 
....................                     nDiscrepancyMarker_u8 = bitpos_u8; 
0585:  MOVF   56,W
0586:  MOVWF  57
....................                 } 
....................             } 
....................  
....................             /* store bit in ROM address */ 
....................            if (bit_b != 0) 
0587:  BTFSS  58.0
0588:  GOTO   591
....................            { 
....................                nRomAddr_au8[byteidx_u8] |= mask_u8; 
0589:  MOVLW  40
058A:  ADDWF  54,W
058B:  MOVWF  04
058C:  BCF    03.7
058D:  MOVF   00,W
058E:  IORWF  55,W
058F:  MOVWF  00
....................            } 
0590:  GOTO   599
....................            else 
....................            { 
....................                nRomAddr_au8[byteidx_u8] &= ~mask_u8; 
0591:  MOVLW  40
0592:  ADDWF  54,W
0593:  MOVWF  04
0594:  BCF    03.7
0595:  MOVF   55,W
0596:  XORLW  FF
0597:  ANDWF  00,W
0598:  MOVWF  00
....................            } 
....................  
....................            DS1820_WriteBit(bit_b); 
0599:  MOVLW  00
059A:  BTFSC  58.0
059B:  MOVLW  01
059C:  MOVWF  59
059D:  MOVF   59,W
059E:  MOVWF  67
....................  
....................            /* increment bit position */ 
....................            bitpos_u8 ++; 
*
05B9:  INCF   56,F
....................  
....................            /* calculate next mask value */ 
....................            mask_u8 = mask_u8 << 1; 
05BA:  BCF    03.0
05BB:  RLF    55,F
....................  
....................            /* check if this byte has finished */ 
....................            if (mask_u8 == 0) 
05BC:  MOVF   55,F
05BD:  BTFSS  03.2
05BE:  GOTO   5C2
....................            { 
....................                byteidx_u8 ++;  /* advance to next byte of ROM mask */ 
05BF:  INCF   54,F
....................                mask_u8 = 1;    /* update mask */ 
05C0:  MOVLW  01
05C1:  MOVWF  55
....................            } 
....................         } 
....................     } while (byteidx_u8 < DS1820_ADDR_LEN); 
05C2:  MOVF   54,W
05C3:  SUBLW  07
05C4:  BTFSC  03.0
05C5:  GOTO   517
....................  
....................  
....................     /* if search was unsuccessful then */ 
....................     if (bitpos_u8 < 65) 
05C6:  MOVF   56,W
05C7:  SUBLW  40
05C8:  BTFSS  03.0
05C9:  GOTO   5CC
....................     { 
....................         /* reset the last discrepancy to 0 */ 
....................         nLastDiscrepancy_u8 = 0; 
05CA:  CLRF   3F
....................     } 
05CB:  GOTO   5D3
....................     else 
....................     { 
....................         /* search was successful */ 
....................         nLastDiscrepancy_u8 = nDiscrepancyMarker_u8; 
05CC:  MOVF   57,W
05CD:  MOVWF  3F
....................         bDoneFlag = (nLastDiscrepancy_u8 == 0); 
05CE:  BCF    2D.1
05CF:  MOVF   3F,F
05D0:  BTFSC  03.2
05D1:  BSF    2D.1
....................  
....................         /* indicates search is not complete yet, more parts remain */ 
....................         next_b = TRUE; 
05D2:  BSF    58.2
....................     } 
....................  
....................     return next_b; 
05D3:  MOVLW  00
05D4:  BTFSC  58.2
05D5:  MOVLW  01
05D6:  MOVWF  78
05D7:  RETURN
.................... } 
....................  
....................  
.................... /******************************************************************************* 
....................  * FUNCTION:   DS1820_FindFirstDevice 
....................  * PURPOSE:    Starts the device search on the 1-wire bus. 
....................  * 
....................  * INPUT:      - 
....................  * OUTPUT:     nRomAddr_au8[]       ROM code of the first device 
....................  * RETURN:     bool                 TRUE if there are more devices on the 1-wire 
....................  *                                  bus, FALSE otherwise 
....................  ******************************************************************************/ 
.................... bool DS1820_FindFirstDevice(void) 
.................... { 
....................     nLastDiscrepancy_u8 = 0; 
05D8:  CLRF   3F
....................     bDoneFlag = FALSE; 
05D9:  BCF    2D.1
....................  
....................     return ( DS1820_FindNextDevice() ); 
05DA:  CALL   485
05DB:  MOVF   78,W
05DC:  RETURN
.................... } 
....................  
....................  
.................... /******************************************************************************* 
....................  * FUNCTION:   DS1820_WriteEEPROM 
....................  * PURPOSE:    Writes to the DS1820 EEPROM memory (2 bytes available). 
....................  * 
....................  * INPUT:      nTHigh         high byte of EEPROM 
....................  *             nTLow          low byte of EEPROM 
....................  * OUTPUT:     - 
....................  * RETURN:     - 
....................  ******************************************************************************/ 
.................... void DS1820_WriteEEPROM(uint8 nTHigh, uint8 nTLow) 
.................... { 
....................     /* --- write to scratchpad ----------------------------------------------- */ 
....................     DS1820_Reset(); 
....................     DS1820_AddrDevice(DS1820_CMD_MATCHROM); 
....................     DS1820_WriteByte(DS1820_CMD_WRITESCRPAD); /* start conversion */ 
....................     DS1820_WriteByte(nTHigh); 
....................     DS1820_WriteByte(nTLow); 
....................  
....................     DS1820_DelayUs(10); 
....................  
....................     DS1820_Reset(); 
....................     DS1820_AddrDevice(DS1820_CMD_MATCHROM); 
....................     DS1820_WriteByte(DS1820_CMD_COPYSCRPAD); /* start conversion */ 
....................  
....................     delay_ms(10); 
.................... } 
....................  
....................  
.................... /******************************************************************************* 
....................  * FUNCTION:   DS1820_GetTempRaw 
....................  * PURPOSE:    Get temperature raw value from single DS1820 device. 
....................  * 
....................  *             Scratchpad Memory Layout 
....................  *             Byte  Register 
....................  *             0     Temperature_LSB 
....................  *             1     Temperature_MSB 
....................  *             2     Temp Alarm High / User Byte 1 
....................  *             3     Temp Alarm Low / User Byte 2 
....................  *             4     Reserved 
....................  *             5     Reserved 
....................  *             6     Count_Remain 
....................  *             7     Count_per_C 
....................  *             8     CRC 
....................  * 
....................  *             Temperature calculation for DS18S20 (Family Code 0x10): 
....................  *             ======================================================= 
....................  *                                             (Count_per_C - Count_Remain) 
....................  *             Temperature = temp_raw - 0.25 + ---------------------------- 
....................  *                                                     Count_per_C 
....................  * 
....................  *             Where temp_raw is the value from the temp_MSB and temp_LSB with 
....................  *             the least significant bit removed (the 0.5C bit). 
....................  * 
....................  * 
....................  *             Temperature calculation for DS18B20 (Family Code 0x28): 
....................  *             ======================================================= 
....................  *                      bit7   bit6   bit5   bit4   bit3   bit2   bit1   bit0 
....................  *             LSB      2^3    2^2    2^1    2^0    2^-1   2^-2   2^-3   2^-4 
....................  *                      bit15  bit14  bit13  bit12  bit3   bit2   bit1   bit0 
....................  *             MSB      S      S      S      S      S      2^6    2^5    2^4 
....................  * 
....................  *             The temperature data is stored as a 16-bit sign-extended twos 
....................  *             complement number in the temperature register. The sign bits (S) 
....................  *             indicate if the temperature is positive or negative: for 
....................  *             positive numbers S = 0 and for negative numbers S = 1. 
....................  * 
....................  * RETURN:     sint16         raw temperature value with a resolution 
....................  *                            of 1/256C 
....................  ******************************************************************************/ 
.................... sint16 DS1820_GetTempRaw(void) 
.................... { 
....................     uint8 i; 
....................     uint16 temp_u16; 
....................     uint16 highres_u16; 
....................     uint8 scrpad[DS1820_SCRPADMEM_LEN]; 
....................  
....................     /* --- start temperature conversion -------------------------------------- */ 
....................     DS1820_Reset(); 
....................     DS1820_AddrDevice(DS1820_CMD_MATCHROM);     /* address the device */ 
*
09E6:  MOVLW  55
09E7:  MOVWF  61
....................     output_high(DS1820_DATAPIN); 
*
0A9C:  BSF    03.5
0A9D:  BCF    06.3
0A9E:  BCF    03.5
0A9F:  BSF    06.3
....................     DS1820_WriteByte(DS1820_CMD_CONVERTTEMP);   /* start conversion */ 
0AA0:  MOVLW  44
0AA1:  MOVWF  64
....................     //DS1820_DelayMs(DS1820_TEMPCONVERT_DLY);   /* wait for temperature conversion */ 
....................     DS1820_DelayMs(750); 
*
0AD6:  MOVLW  03
0AD7:  MOVWF  61
0AD8:  MOVLW  FA
0AD9:  MOVWF  65
0ADA:  BCF    0A.3
0ADB:  CALL   183
0ADC:  BSF    0A.3
0ADD:  DECFSZ 61,F
0ADE:  GOTO   2D8
....................  
....................  
....................     /* --- read sratchpad ---------------------------------------------------- */ 
....................     DS1820_Reset(); 
....................     DS1820_AddrDevice(DS1820_CMD_MATCHROM);   /* address the device */ 
*
0B1E:  MOVLW  55
0B1F:  MOVWF  61
....................     DS1820_WriteByte(DS1820_CMD_READSCRPAD);  /* read scratch pad */ 
*
0BD4:  MOVLW  BE
0BD5:  MOVWF  64
....................  
....................     /* read scratch pad data */ 
....................     for (i=0; i < DS1820_SCRPADMEM_LEN; i++) 
*
0C0A:  CLRF   53
0C0B:  MOVF   53,W
0C0C:  SUBLW  08
0C0D:  BTFSS  03.0
0C0E:  GOTO   45B
....................     { 
....................         scrpad[i] = DS1820_ReadByte(); 
0C0F:  MOVLW  58
0C10:  ADDWF  53,W
0C11:  MOVWF  78
0C12:  CLRF   7A
0C13:  BTFSC  03.0
0C14:  INCF   7A,F
0C15:  MOVF   78,W
0C16:  MOVWF  61
0C17:  MOVF   7A,W
0C18:  MOVWF  62
*
0C52:  MOVF   61,W
0C53:  MOVWF  04
0C54:  BCF    03.7
0C55:  BTFSC  62.0
0C56:  BSF    03.7
0C57:  MOVF   78,W
0C58:  MOVWF  00
0C59:  INCF   53,F
0C5A:  GOTO   40B
....................     } 
....................  
....................  
....................     /* --- calculate temperature --------------------------------------------- */ 
....................     /* Formular for temperature calculation: */ 
....................     /* Temp = Temp_read - 0.25 + ((Count_per_C - Count_Remain)/Count_per_C) */ 
....................  
....................     /* get raw value of temperature (0.5C resolution) */ 
....................     temp_u16 = 0; 
0C5B:  CLRF   55
0C5C:  CLRF   54
....................     temp_u16 = (uint16)((uint16)scrpad[DS1820_REG_TEMPMSB] << 8); 
0C5D:  CLRF   62
0C5E:  MOVF   59,W
0C5F:  MOVWF  55
0C60:  CLRF   54
....................     temp_u16 |= (uint16)(scrpad[DS1820_REG_TEMPLSB]); 
0C61:  CLRF   7A
0C62:  MOVF   58,W
0C63:  IORWF  54,F
0C64:  MOVF   7A,W
0C65:  IORWF  55,F
....................  
....................     if (nRomAddr_au8[0] == DS1820_FAMILY_CODE_DS18S20) 
0C66:  MOVF   40,W
0C67:  SUBLW  10
0C68:  BTFSS  03.2
0C69:  GOTO   4BC
....................     { 
....................         /* get temperature value in 1C resolution */ 
....................         temp_u16 >>= 1; 
0C6A:  BCF    03.0
0C6B:  RRF    55,F
0C6C:  RRF    54,F
....................      
....................         /* temperature resolution is TEMP_RES (0x100), so 1C equals 0x100 */ 
....................         /* => convert to temperature to 1/256C resolution */ 
....................         temp_u16 = ((uint16)temp_u16 << 8); 
0C6D:  MOVF   54,W
0C6E:  MOVWF  55
0C6F:  CLRF   54
....................      
....................         /* now substract 0.25C */ 
....................         temp_u16 -= ((uint16)TEMP_RES >> 2); 
0C70:  MOVLW  40
0C71:  SUBWF  54,F
0C72:  MOVLW  00
0C73:  BTFSS  03.0
0C74:  MOVLW  01
0C75:  SUBWF  55,F
....................      
....................         /* now calculate high resolution */ 
....................         highres_u16 = scrpad[DS1820_REG_CNTPERSEC] - scrpad[DS1820_REG_CNTREMAIN]; 
0C76:  MOVF   5E,W
0C77:  SUBWF  5F,W
0C78:  MOVWF  56
0C79:  CLRF   57
....................         highres_u16 = ((uint16)highres_u16 << 8); 
0C7A:  MOVF   56,W
0C7B:  MOVWF  57
0C7C:  CLRF   56
....................         if (scrpad[DS1820_REG_CNTPERSEC]) 
0C7D:  MOVF   5F,F
0C7E:  BTFSC  03.2
0C7F:  GOTO   4B5
....................         { 
....................             highres_u16 = highres_u16 / (uint16)scrpad[DS1820_REG_CNTPERSEC]; 
0C80:  CLRF   7A
0C81:  MOVF   5F,W
0C82:  MOVWF  61
0C83:  MOVF   7A,W
0C84:  MOVWF  62
0C85:  MOVF   57,W
0C86:  MOVWF  64
0C87:  MOVF   56,W
0C88:  MOVWF  63
0C89:  MOVF   62,W
0C8A:  MOVWF  66
0C8B:  MOVF   61,W
0C8C:  MOVWF  65
*
0CB1:  MOVF   79,W
0CB2:  MOVWF  57
0CB3:  MOVF   78,W
0CB4:  MOVWF  56
....................         } 
....................      
....................         /* now calculate result */ 
....................         highres_u16 = highres_u16 + temp_u16; 
0CB5:  MOVF   54,W
0CB6:  ADDWF  56,F
0CB7:  MOVF   55,W
0CB8:  BTFSC  03.0
0CB9:  INCFSZ 55,W
0CBA:  ADDWF  57,F
....................     } 
0CBB:  GOTO   4CA
....................     else 
....................     { 
....................         /* 12 bit temperature value has 0.0625C resolution */ 
....................         /* shift left by 4 to get 1/256C resolution */ 
....................         highres_u16 = temp_u16; 
0CBC:  MOVF   55,W
0CBD:  MOVWF  57
0CBE:  MOVF   54,W
0CBF:  MOVWF  56
....................         highres_u16 <<= 4; 
0CC0:  RLF    56,F
0CC1:  RLF    57,F
0CC2:  RLF    56,F
0CC3:  RLF    57,F
0CC4:  RLF    56,F
0CC5:  RLF    57,F
0CC6:  RLF    56,F
0CC7:  RLF    57,F
0CC8:  MOVLW  F0
0CC9:  ANDWF  56,F
....................     } 
....................  
....................     return (highres_u16); 
0CCA:  MOVF   56,W
0CCB:  MOVWF  78
0CCC:  MOVF   57,W
0CCD:  MOVWF  79
.................... } 
....................  
....................  
.................... /******************************************************************************* 
....................  * FUNCTION:   DS1820_GetTempFloat 
....................  * PURPOSE:    Converts internal temperature value to string (physical value). 
....................  * 
....................  * INPUT:      none 
....................  * OUTPUT:     none 
....................  * RETURN:     float          temperature value with as float value 
....................  ******************************************************************************/ 
.................... float DS1820_GetTempFloat(void) 
.................... { 
....................     return ((float)DS1820_GetTempRaw() / (float)TEMP_RES); 
0CCE:  MOVF   79,W
0CCF:  MOVWF  54
0CD0:  MOVF   78,W
0CD1:  MOVWF  53
0CD2:  BCF    0A.3
0CD3:  CALL   7E2
0CD4:  BSF    0A.3
0CD5:  MOVF   7A,W
0CD6:  MOVWF  56
0CD7:  MOVF   79,W
0CD8:  MOVWF  55
0CD9:  MOVF   78,W
0CDA:  MOVWF  54
0CDB:  MOVF   77,W
0CDC:  MOVWF  53
0CDD:  MOVF   56,W
0CDE:  MOVWF  5A
0CDF:  MOVF   55,W
0CE0:  MOVWF  59
0CE1:  MOVF   54,W
0CE2:  MOVWF  58
0CE3:  MOVF   53,W
0CE4:  MOVWF  57
0CE5:  CLRF   5E
0CE6:  CLRF   5D
0CE7:  CLRF   5C
0CE8:  MOVLW  87
0CE9:  MOVWF  5B
*
0DB3:  BSF    0A.3
0DB4:  BSF    0A.4
0DB5:  GOTO   28B (RETURN)
.................... } 
....................  
....................  
.................... /******************************************************************************* 
....................  * FUNCTION:   DS1820_GetTempString 
....................  * PURPOSE:    Converts internal temperature value to string (physical value). 
....................  * 
....................  * INPUT:      tRaw_s16       internal temperature value 
....................  * OUTPUT:     strTemp_pc     user string buffer to write temperature value 
....................  * RETURN:     sint16         temperature value with an internal resolution 
....................  *                            of TEMP_RES 
....................  ******************************************************************************/ 
.................... void DS1820_GetTempString(sint16 tRaw_s16, char *strTemp_pc) 
.................... { 
....................     sint16 tPhyLow_s16; 
....................     sint8 tPhy_s8; 
....................  
....................     /* convert from raw value (1/256C resolution) to physical value */ 
....................     tPhy_s8 = (sint8)(tRaw_s16/TEMP_RES); 
....................  
....................     /* convert digits from raw value (1/256C resolution) to physical value */ 
....................     /*tPhyLow_u16 = tInt_s16 % TEMP_RES;*/ 
....................     tPhyLow_s16 = tRaw_s16 & 0xFF;      /* this operation is the same as */ 
....................                                         /* but saves flash memory tInt_s16 % TEMP_RES */ 
....................     tPhyLow_s16 = tPhyLow_s16 * 100; 
....................     tPhyLow_s16 = (uint16)tPhyLow_s16 / TEMP_RES; 
....................  
....................     /* write physical temperature value to string */ 
....................     sprintf(strTemp_pc, "%d.%02d", tPhy_s8, (sint8)tPhyLow_s16); 
.................... } 
....................  
.................... #endif /* _DS1820_H */ 
....................  
....................  
.................... #include "functions.c" 
.................... /* 
....................  sygnal dzwiekowy 
....................  
.................... */ 
.................... void beep(int l=10){ 
....................       ON(P_BEEPER); 
*
05DD:  BSF    03.5
05DE:  BCF    08.1
05DF:  BCF    03.5
05E0:  BSF    08.1
....................       delay_ms(l); 
05E1:  MOVF   57,W
05E2:  MOVWF  65
05E3:  CALL   183
....................       OFF(P_BEEPER); 
05E4:  BSF    03.5
05E5:  BCF    08.1
05E6:  BCF    03.5
05E7:  BCF    08.1
....................       delay_ms(5); 
05E8:  MOVLW  05
05E9:  MOVWF  65
05EA:  CALL   183
05EB:  RETURN
.................... } 
....................  
.................... /* 
....................   sprawdzenie jaki przycisk z panelu sterowania jest klik 
....................   domyslny stan pinow na rezystorze podciagajacym: 
....................   E_OK   (E2) - false 
....................   E_DOWN (C0) - true 
....................   E_UP   (C1) - true 
....................   po ich wcisnieciu stan przeciwny do domyslnego,  
....................   czyli aktywacja sygnalem odwrotnym do domyslnego. 
.................... */ 
.................... char enterimp = 4;   
....................  
.................... int getButton() { 
....................      
....................     set_adc_channel(1); 
05EC:  MOVLW  08
05ED:  MOVWF  78
05EE:  MOVF   1F,W
05EF:  ANDLW  C7
05F0:  IORWF  78,W
05F1:  MOVWF  1F
....................     delay_ms(1); 
05F2:  MOVLW  01
05F3:  MOVWF  65
05F4:  CALL   183
....................     int8 an=read_ADC(); 
05F5:  BSF    1F.2
05F6:  BTFSC  1F.2
05F7:  GOTO   5F6
05F8:  BSF    03.5
05F9:  MOVF   1E,W
05FA:  BCF    03.5
05FB:  MOVWF  56
....................     delay_ms(3); 
05FC:  MOVLW  03
05FD:  MOVWF  65
05FE:  CALL   183
....................  
....................     //0 
....................     if (an < 10){ 
05FF:  MOVF   56,W
0600:  SUBLW  09
0601:  BTFSS  03.0
0602:  GOTO   611
....................             enterimp = 0; 
0603:  CLRF   4A
....................             //printf(lcd_putc,"\f down "); 
....................             delay_ms(500); 
0604:  MOVLW  02
0605:  MOVWF  57
0606:  MOVLW  FA
0607:  MOVWF  65
0608:  CALL   183
0609:  DECFSZ 57,F
060A:  GOTO   606
.................... 	    beep(); 
060B:  MOVLW  0A
060C:  MOVWF  57
060D:  CALL   5DD
....................             return E_DOWN; 
060E:  MOVLW  01
060F:  MOVWF  78
0610:  GOTO   656
....................     }  
....................     //246 
....................     if (an > 230 && an < 255){ 
0611:  MOVF   56,W
0612:  SUBLW  E6
0613:  BTFSC  03.0
0614:  GOTO   63E
0615:  INCFSZ 56,W
0616:  GOTO   618
0617:  GOTO   63E
....................                if (enterimp==2){ 
0618:  MOVF   4A,W
0619:  SUBLW  02
061A:  BTFSS  03.2
061B:  GOTO   62B
....................                         enterimp = enterimp + 1; 
061C:  MOVLW  01
061D:  ADDWF  4A,F
....................                         //printf(lcd_putc," ok "); 
....................                         delay_ms(500); 
061E:  MOVLW  02
061F:  MOVWF  57
0620:  MOVLW  FA
0621:  MOVWF  65
0622:  CALL   183
0623:  DECFSZ 57,F
0624:  GOTO   620
.................... 			beep(); 
0625:  MOVLW  0A
0626:  MOVWF  57
0627:  CALL   5DD
....................                         return E_OK;         
0628:  MOVLW  02
0629:  MOVWF  78
062A:  GOTO   656
....................                 } 
....................                 if (enterimp < 3){ 
062B:  MOVF   4A,W
062C:  SUBLW  02
062D:  BTFSS  03.0
062E:  GOTO   63B
....................                         enterimp = enterimp + 1; 
062F:  MOVLW  01
0630:  ADDWF  4A,F
....................                         //printf(lcd_putc," idle "); 
....................                         delay_ms(500); 
0631:  MOVLW  02
0632:  MOVWF  57
0633:  MOVLW  FA
0634:  MOVWF  65
0635:  CALL   183
0636:  DECFSZ 57,F
0637:  GOTO   633
....................                         return E_IDLE; 
0638:  MOVLW  03
0639:  MOVWF  78
063A:  GOTO   656
....................                 } 
....................              return E_IDLE; 
063B:  MOVLW  03
063C:  MOVWF  78
063D:  GOTO   656
....................  
....................     } 
....................     //156 
....................     if (an > 140 && an < 165){ 
063E:  MOVF   56,W
063F:  SUBLW  8C
0640:  BTFSC  03.0
0641:  GOTO   654
0642:  MOVF   56,W
0643:  SUBLW  A4
0644:  BTFSS  03.0
0645:  GOTO   654
....................              beep(); 
0646:  MOVLW  0A
0647:  MOVWF  57
0648:  CALL   5DD
....................              enterimp = 0; 
0649:  CLRF   4A
....................              //printf(lcd_putc,"\f up "); 
....................              delay_ms(500); 
064A:  MOVLW  02
064B:  MOVWF  57
064C:  MOVLW  FA
064D:  MOVWF  65
064E:  CALL   183
064F:  DECFSZ 57,F
0650:  GOTO   64C
....................              return E_UP; 
0651:  MOVLW  00
0652:  MOVWF  78
0653:  GOTO   656
....................     } 
....................      
....................     return E_IDLE; 
0654:  MOVLW  03
0655:  MOVWF  78
0656:  RETURN
....................      
.................... } 
....................  
.................... void print_aqua_temp(float t){ 
....................    if (t!=111.0){ 
*
185F:  MOVF   56,W
1860:  MOVWF  5A
1861:  MOVF   55,W
1862:  MOVWF  59
1863:  MOVF   54,W
1864:  MOVWF  58
1865:  MOVF   53,W
1866:  MOVWF  57
1867:  CLRF   5E
1868:  CLRF   5D
1869:  MOVLW  5E
186A:  MOVWF  5C
186B:  MOVLW  85
186C:  MOVWF  5B
186D:  BCF    0A.4
186E:  CALL   5B6
186F:  BSF    0A.4
1870:  BTFSC  03.2
1871:  GOTO   09D
....................       lcd_gotoxy(1,2); 
1872:  MOVLW  01
1873:  MOVWF  65
1874:  MOVLW  02
1875:  MOVWF  66
1876:  BCF    0A.4
1877:  BCF    0A.3
1878:  CALL   32C
1879:  BSF    0A.4
187A:  BSF    0A.3
....................       /* 
....................       sprintf(ctemp, "%3.1f", ds1820_read()); 
....................       for (x=0; x<4; x++){  
....................             lcd_putc(ctemp[x]); 
....................       }*/ 
....................       lcd_send_byte(1,0x4); //symbol wody 
187B:  MOVLW  01
187C:  MOVWF  69
187D:  MOVLW  04
187E:  MOVWF  6A
187F:  BCF    0A.4
1880:  BCF    0A.3
1881:  CALL   197
1882:  BSF    0A.4
1883:  BSF    0A.3
....................       printf(lcd_putc, "%3.1f", t);  
1884:  MOVLW  02
1885:  MOVWF  04
1886:  MOVF   56,W
1887:  MOVWF  5A
1888:  MOVF   55,W
1889:  MOVWF  59
188A:  MOVF   54,W
188B:  MOVWF  58
188C:  MOVF   53,W
188D:  MOVWF  57
188E:  MOVLW  01
188F:  MOVWF  5B
1890:  BCF    0A.4
1891:  GOTO   5F5
1892:  BSF    0A.4
....................       lcd_send_byte(1,0x2); //stopnie celsjusza 
1893:  MOVLW  01
1894:  MOVWF  69
1895:  MOVLW  02
1896:  MOVWF  6A
1897:  BCF    0A.4
1898:  BCF    0A.3
1899:  CALL   197
189A:  BSF    0A.4
189B:  BSF    0A.3
....................    } 
189C:  GOTO   0B1
....................    else { 
....................       lcd_gotoxy(1,2); 
189D:  MOVLW  01
189E:  MOVWF  65
189F:  MOVLW  02
18A0:  MOVWF  66
18A1:  BCF    0A.4
18A2:  BCF    0A.3
18A3:  CALL   32C
18A4:  BSF    0A.4
18A5:  BSF    0A.3
....................       printf(lcd_putc, "      ");  
18A6:  MOVLW  A3
18A7:  BSF    03.6
18A8:  MOVWF  0D
18A9:  MOVLW  00
18AA:  MOVWF  0F
18AB:  BCF    0A.4
18AC:  BCF    0A.3
18AD:  BCF    03.6
18AE:  CALL   362
18AF:  BSF    0A.4
18B0:  BSF    0A.3
....................    } 
....................     
....................     
.................... } 
....................  
....................  
....................  
.................... /* 
.................... wyswietlenie na ekranie  
.................... informacji o temperaturze 
.................... w pomieszczeniu 
.................... /* 
.................... void print_room_temp(float t){ 
....................    lcd_gotoxy(11,2); 
....................     
....................    //sprintf(ctemp, "%3.1f", ds1820_read()); 
....................    //for (x=0; x<4; x++){  
....................    //        lcd_putc(ctemp[x]); 
....................    //} 
....................    lcd_send_byte(1,0x5); //symbol domku 
....................    printf(lcd_putc, "%3.1f", t);  
....................    lcd_send_byte(1,0x2); //stopnie celsjusza 
....................     
....................     
.................... }*/ 
....................  
.................... void print_time(){ 
....................   lcd_gotoxy(8,2); 
*
18FA:  MOVLW  08
18FB:  MOVWF  65
18FC:  MOVLW  02
18FD:  MOVWF  66
18FE:  BCF    0A.4
18FF:  BCF    0A.3
1900:  CALL   32C
1901:  BSF    0A.4
1902:  BSF    0A.3
....................   lcd_send_byte(1,0x6); //symbol zegarka 
1903:  MOVLW  01
1904:  MOVWF  69
1905:  MOVLW  06
1906:  MOVWF  6A
1907:  BCF    0A.4
1908:  BCF    0A.3
1909:  CALL   197
190A:  BSF    0A.4
190B:  BSF    0A.3
....................   printf(lcd_putc, "%02d:%02d:%02d", hour,min,sec); 
190C:  MOVF   30,W
190D:  MOVWF  56
190E:  MOVLW  01
190F:  MOVWF  57
1910:  BCF    0A.4
1911:  BCF    0A.3
1912:  CALL   6D3
1913:  BSF    0A.4
1914:  BSF    0A.3
1915:  MOVLW  3A
1916:  MOVWF  64
1917:  BCF    0A.4
1918:  BCF    0A.3
1919:  CALL   33E
191A:  BSF    0A.4
191B:  BSF    0A.3
191C:  MOVF   2F,W
191D:  MOVWF  56
191E:  MOVLW  01
191F:  MOVWF  57
1920:  BCF    0A.4
1921:  BCF    0A.3
1922:  CALL   6D3
1923:  BSF    0A.4
1924:  BSF    0A.3
1925:  MOVLW  3A
1926:  MOVWF  64
1927:  BCF    0A.4
1928:  BCF    0A.3
1929:  CALL   33E
192A:  BSF    0A.4
192B:  BSF    0A.3
192C:  MOVF   2E,W
192D:  MOVWF  56
192E:  MOVLW  01
192F:  MOVWF  57
1930:  BCF    0A.4
1931:  BCF    0A.3
1932:  CALL   6D3
1933:  BSF    0A.4
1934:  BSF    0A.3
.................... } 
....................  
....................  
....................  
....................  
....................  
....................  
....................  
.................... //czytanie zegara 
.................... void read_time() 
.................... { 
....................    sec = bcdToDec(read_ds1307 (0)); // read second 
*
094B:  CLRF   53
094C:  CALL   088
094D:  MOVF   78,W
094E:  MOVWF  53
094F:  MOVF   53,W
0950:  MOVWF  54
*
0961:  MOVF   78,W
0962:  MOVWF  2E
....................    delay_ms(1); 
0963:  MOVLW  01
0964:  MOVWF  65
0965:  BCF    0A.3
0966:  CALL   183
0967:  BSF    0A.3
....................    min = bcdToDec(read_ds1307 (1)); // read minute 
0968:  MOVLW  01
0969:  MOVWF  53
096A:  CALL   088
096B:  MOVF   78,W
096C:  MOVWF  53
096D:  MOVF   53,W
096E:  MOVWF  54
*
097F:  MOVF   78,W
0980:  MOVWF  2F
....................    delay_ms(1); 
0981:  MOVLW  01
0982:  MOVWF  65
0983:  BCF    0A.3
0984:  CALL   183
0985:  BSF    0A.3
....................    hour = bcdToDec(read_ds1307 (2)); // read hour 
0986:  MOVLW  02
0987:  MOVWF  53
0988:  CALL   088
0989:  MOVF   78,W
098A:  MOVWF  53
098B:  MOVF   53,W
098C:  MOVWF  54
*
099D:  MOVF   78,W
099E:  MOVWF  30
....................    delay_ms(1); 
099F:  MOVLW  01
09A0:  MOVWF  65
09A1:  BCF    0A.3
09A2:  CALL   183
09A3:  BSF    0A.3
09A4:  BSF    0A.3
09A5:  BSF    0A.4
09A6:  GOTO   276 (RETURN)
....................    //day = bcdToDec(read_ds1307 (4)); // read day 
....................    //month = bcdToDec(read_ds1307 (5)); // read month 
....................    //year = bcdToDec(read_ds1307 (6)); // read year 
.................... } 
....................  
.................... //ustawianie zegara 
.................... void set_time() 
.................... { 
....................    write_ds1307 (4, decToBcd(1)); //day 
*
1533:  MOVLW  01
1534:  MOVWF  53
*
156C:  MOVF   78,W
156D:  MOVWF  53
156E:  MOVLW  04
156F:  MOVWF  54
1570:  MOVF   78,W
1571:  MOVWF  55
1572:  BCF    0A.4
1573:  BSF    0A.3
1574:  CALL   000
1575:  BSF    0A.4
1576:  BCF    0A.3
....................    write_ds1307 (5, decToBcd(1)); //month 
1577:  MOVLW  01
1578:  MOVWF  53
*
15B0:  MOVF   78,W
15B1:  MOVWF  53
15B2:  MOVLW  05
15B3:  MOVWF  54
15B4:  MOVF   78,W
15B5:  MOVWF  55
15B6:  BCF    0A.4
15B7:  BSF    0A.3
15B8:  CALL   000
15B9:  BSF    0A.4
15BA:  BCF    0A.3
....................    write_ds1307 (6, decToBcd(0)); //year 
15BB:  CLRF   53
*
15F3:  MOVF   78,W
15F4:  MOVWF  53
15F5:  MOVLW  06
15F6:  MOVWF  54
15F7:  MOVF   78,W
15F8:  MOVWF  55
15F9:  BCF    0A.4
15FA:  BSF    0A.3
15FB:  CALL   000
15FC:  BSF    0A.4
15FD:  BCF    0A.3
....................    write_ds1307 (2, decToBcd(hour)); //hour; 
15FE:  MOVF   30,W
15FF:  MOVWF  53
*
1637:  MOVF   78,W
1638:  MOVWF  53
1639:  MOVLW  02
163A:  MOVWF  54
163B:  MOVF   78,W
163C:  MOVWF  55
163D:  BCF    0A.4
163E:  BSF    0A.3
163F:  CALL   000
1640:  BSF    0A.4
1641:  BCF    0A.3
....................    write_ds1307 (1, decToBcd(min)); //minute 
1642:  MOVF   2F,W
1643:  MOVWF  53
*
167B:  MOVF   78,W
167C:  MOVWF  53
167D:  MOVLW  01
167E:  MOVWF  54
167F:  MOVF   78,W
1680:  MOVWF  55
1681:  BCF    0A.4
1682:  BSF    0A.3
1683:  CALL   000
1684:  BSF    0A.4
1685:  BCF    0A.3
....................    write_ds1307 (0, decToBcd(0)); //second 
1686:  CLRF   53
*
16BE:  MOVF   78,W
16BF:  MOVWF  53
16C0:  CLRF   54
16C1:  MOVF   78,W
16C2:  MOVWF  55
16C3:  BCF    0A.4
16C4:  BSF    0A.3
16C5:  CALL   000
16C6:  BSF    0A.4
16C7:  BCF    0A.3
....................  
.................... } 
....................  
....................  
.................... /* 
....................  dodaje do hour:min:sec czas podany w sekundach 
....................  i zwraca w tablicy w formacie hour:min:sec 
....................  */ 
.................... void sum_during(byte hour, byte min, byte sec, byte during, byte t[]){ 
....................     //przeliczenie podanego czasu na sekundy 
....................     //int as = (hour * 3600) + (min * 60) + sec; 
....................     int16 as = (hour * 3600) + (min * 60) + sec; 
....................      
....................     int16 d; 
....................     //int t[2]; //h:m:s 
....................     //dodanie do podanego czasu czasu trwania (during) 
....................     d = as + during; 
....................     //przeliczenie na format czasu 
....................     t[0] =  (byte)(((d / 60) / 60) % 24); 
....................     t[1] =  (byte)((d / 60) % 60); 
....................     t[2] =  (byte)(d % 60); 
....................     printf(lcd_putc,"\f%lu %lu\n",as, d); 
....................     delay_ms(2000); 
.................... } 
....................  
....................  
.................... //domyslne ustawienia do pamieci 
.................... void default_set(){ 
.................... 	write_eeprom(EEPROM_TEMP,26); 
*
03B8:  MOVF   0B,W
03B9:  MOVWF  77
03BA:  BCF    0B.7
03BB:  BSF    03.6
03BC:  CLRF   0D
03BD:  MOVLW  1A
03BE:  MOVWF  0C
03BF:  BSF    03.5
03C0:  BCF    0C.7
03C1:  BSF    0C.2
03C2:  MOVLW  55
03C3:  MOVWF  0D
03C4:  MOVLW  AA
03C5:  MOVWF  0D
03C6:  BSF    0C.1
03C7:  BTFSC  0C.1
03C8:  GOTO   3C7
03C9:  BCF    0C.2
03CA:  MOVF   77,W
03CB:  BCF    03.5
03CC:  BCF    03.6
03CD:  IORWF  0B,F
.................... 	write_eeprom(EEPROM_LIGHT_HOUR_ON,7); 
03CE:  MOVF   0B,W
03CF:  MOVWF  77
03D0:  BCF    0B.7
03D1:  MOVLW  01
03D2:  BSF    03.6
03D3:  MOVWF  0D
03D4:  MOVLW  07
03D5:  MOVWF  0C
03D6:  BSF    03.5
03D7:  BCF    0C.7
03D8:  BSF    0C.2
03D9:  MOVLW  55
03DA:  MOVWF  0D
03DB:  MOVLW  AA
03DC:  MOVWF  0D
03DD:  BSF    0C.1
03DE:  BTFSC  0C.1
03DF:  GOTO   3DE
03E0:  BCF    0C.2
03E1:  MOVF   77,W
03E2:  BCF    03.5
03E3:  BCF    03.6
03E4:  IORWF  0B,F
.................... 	write_eeprom(EEPROM_LIGHT_MIN_ON,1); 
03E5:  MOVF   0B,W
03E6:  MOVWF  77
03E7:  BCF    0B.7
03E8:  MOVLW  02
03E9:  BSF    03.6
03EA:  MOVWF  0D
03EB:  MOVLW  01
03EC:  MOVWF  0C
03ED:  BSF    03.5
03EE:  BCF    0C.7
03EF:  BSF    0C.2
03F0:  MOVLW  55
03F1:  MOVWF  0D
03F2:  MOVLW  AA
03F3:  MOVWF  0D
03F4:  BSF    0C.1
03F5:  BTFSC  0C.1
03F6:  GOTO   3F5
03F7:  BCF    0C.2
03F8:  MOVF   77,W
03F9:  BCF    03.5
03FA:  BCF    03.6
03FB:  IORWF  0B,F
.................... 	write_eeprom(EEPROM_LIGHT_HOUR_OFF,18); 
03FC:  MOVF   0B,W
03FD:  MOVWF  77
03FE:  BCF    0B.7
03FF:  MOVLW  03
0400:  BSF    03.6
0401:  MOVWF  0D
0402:  MOVLW  12
0403:  MOVWF  0C
0404:  BSF    03.5
0405:  BCF    0C.7
0406:  BSF    0C.2
0407:  MOVLW  55
0408:  MOVWF  0D
0409:  MOVLW  AA
040A:  MOVWF  0D
040B:  BSF    0C.1
040C:  BTFSC  0C.1
040D:  GOTO   40C
040E:  BCF    0C.2
040F:  MOVF   77,W
0410:  BCF    03.5
0411:  BCF    03.6
0412:  IORWF  0B,F
.................... 	write_eeprom(EEPROM_LIGHT_MIN_OFF,1); 
0413:  MOVF   0B,W
0414:  MOVWF  77
0415:  BCF    0B.7
0416:  MOVLW  04
0417:  BSF    03.6
0418:  MOVWF  0D
0419:  MOVLW  01
041A:  MOVWF  0C
041B:  BSF    03.5
041C:  BCF    0C.7
041D:  BSF    0C.2
041E:  MOVLW  55
041F:  MOVWF  0D
0420:  MOVLW  AA
0421:  MOVWF  0D
0422:  BSF    0C.1
0423:  BTFSC  0C.1
0424:  GOTO   423
0425:  BCF    0C.2
0426:  MOVF   77,W
0427:  BCF    03.5
0428:  BCF    03.6
0429:  IORWF  0B,F
.................... 	write_eeprom(EEPROM_FEED_HOUR_CYCLE,0); 
042A:  MOVF   0B,W
042B:  MOVWF  77
042C:  BCF    0B.7
042D:  MOVLW  05
042E:  BSF    03.6
042F:  MOVWF  0D
0430:  CLRF   0C
0431:  BSF    03.5
0432:  BCF    0C.7
0433:  BSF    0C.2
0434:  MOVLW  55
0435:  MOVWF  0D
0436:  MOVLW  AA
0437:  MOVWF  0D
0438:  BSF    0C.1
0439:  BTFSC  0C.1
043A:  GOTO   439
043B:  BCF    0C.2
043C:  MOVF   77,W
043D:  BCF    03.5
043E:  BCF    03.6
043F:  IORWF  0B,F
.................... 	write_eeprom(EEPROM_FEED_SEC_DELAY,0); 
0440:  MOVF   0B,W
0441:  MOVWF  77
0442:  BCF    0B.7
0443:  MOVLW  06
0444:  BSF    03.6
0445:  MOVWF  0D
0446:  CLRF   0C
0447:  BSF    03.5
0448:  BCF    0C.7
0449:  BSF    0C.2
044A:  MOVLW  55
044B:  MOVWF  0D
044C:  MOVLW  AA
044D:  MOVWF  0D
044E:  BSF    0C.1
044F:  BTFSC  0C.1
0450:  GOTO   44F
0451:  BCF    0C.2
0452:  MOVF   77,W
0453:  BCF    03.5
0454:  BCF    03.6
0455:  IORWF  0B,F
.................... 	write_eeprom(EEPROM_AIR_HOUR_CYCLE,0); 
0456:  MOVF   0B,W
0457:  MOVWF  77
0458:  BCF    0B.7
0459:  MOVLW  07
045A:  BSF    03.6
045B:  MOVWF  0D
045C:  CLRF   0C
045D:  BSF    03.5
045E:  BCF    0C.7
045F:  BSF    0C.2
0460:  MOVLW  55
0461:  MOVWF  0D
0462:  MOVLW  AA
0463:  MOVWF  0D
0464:  BSF    0C.1
0465:  BTFSC  0C.1
0466:  GOTO   465
0467:  BCF    0C.2
0468:  MOVF   77,W
0469:  BCF    03.5
046A:  BCF    03.6
046B:  IORWF  0B,F
.................... 	write_eeprom(EEPROM_AIR_MIN_DELAY,0); 
046C:  MOVF   0B,W
046D:  MOVWF  77
046E:  BCF    0B.7
046F:  MOVLW  08
0470:  BSF    03.6
0471:  MOVWF  0D
0472:  CLRF   0C
0473:  BSF    03.5
0474:  BCF    0C.7
0475:  BSF    0C.2
0476:  MOVLW  55
0477:  MOVWF  0D
0478:  MOVLW  AA
0479:  MOVWF  0D
047A:  BSF    0C.1
047B:  BTFSC  0C.1
047C:  GOTO   47B
047D:  BCF    0C.2
047E:  MOVF   77,W
047F:  BCF    03.5
0480:  BCF    03.6
0481:  IORWF  0B,F
0482:  BSF    0A.3
0483:  BSF    0A.4
0484:  GOTO   1F6 (RETURN)
.................... } 
....................  
.................... ////////////////////////////////////////////////////////////////////// 
.................... void print_desktop(){ 
....................  
.................... 	printf(lcd_putc,"\f"); 
*
1800:  MOVLW  0C
1801:  MOVWF  64
1802:  BCF    0A.4
1803:  BCF    0A.3
1804:  CALL   33E
1805:  BSF    0A.4
1806:  BSF    0A.3
....................         //aktywna grzalka 
.................... 	if (input_state(P_HEATER)){ 
1807:  BTFSS  07.2
1808:  GOTO   019
.................... 			lcd_gotoxy(1,1); 
1809:  MOVLW  01
180A:  MOVWF  65
180B:  MOVWF  66
180C:  BCF    0A.4
180D:  BCF    0A.3
180E:  CALL   32C
180F:  BSF    0A.4
1810:  BSF    0A.3
....................                         lcd_send_byte(1,0x1); 
1811:  MOVLW  01
1812:  MOVWF  69
1813:  MOVWF  6A
1814:  BCF    0A.4
1815:  BCF    0A.3
1816:  CALL   197
1817:  BSF    0A.4
1818:  BSF    0A.3
.................... 	} 
....................         //aktywne oswietlenie 
.................... 	if (input_state(P_LIGHT)){ 
1819:  BTFSS  07.1
181A:  GOTO   02C
....................                      lcd_gotoxy(2,1); 
181B:  MOVLW  02
181C:  MOVWF  65
181D:  MOVLW  01
181E:  MOVWF  66
181F:  BCF    0A.4
1820:  BCF    0A.3
1821:  CALL   32C
1822:  BSF    0A.4
1823:  BSF    0A.3
....................                      lcd_send_byte(1,0x0); 
1824:  MOVLW  01
1825:  MOVWF  69
1826:  CLRF   6A
1827:  BCF    0A.4
1828:  BCF    0A.3
1829:  CALL   197
182A:  BSF    0A.4
182B:  BSF    0A.3
.................... 	} 
....................         //aktywne karmienie 
.................... 	if (input_state(P_FEED)){ 
182C:  BTFSS  07.3
182D:  GOTO   040
....................                         lcd_gotoxy(3,1); 
182E:  MOVLW  03
182F:  MOVWF  65
1830:  MOVLW  01
1831:  MOVWF  66
1832:  BCF    0A.4
1833:  BCF    0A.3
1834:  CALL   32C
1835:  BSF    0A.4
1836:  BSF    0A.3
....................                         lcd_send_byte(1,0x5); 
1837:  MOVLW  01
1838:  MOVWF  69
1839:  MOVLW  05
183A:  MOVWF  6A
183B:  BCF    0A.4
183C:  BCF    0A.3
183D:  CALL   197
183E:  BSF    0A.4
183F:  BSF    0A.3
.................... 	} 
.................... 	//aktywne napowietrzanie            
.................... 	if (input_state(P_AIR)){ 
1840:  BTFSS  08.0
1841:  GOTO   054
....................                         lcd_gotoxy(4,1); 
1842:  MOVLW  04
1843:  MOVWF  65
1844:  MOVLW  01
1845:  MOVWF  66
1846:  BCF    0A.4
1847:  BCF    0A.3
1848:  CALL   32C
1849:  BSF    0A.4
184A:  BSF    0A.3
....................                         lcd_send_byte(1,0x7); 
184B:  MOVLW  01
184C:  MOVWF  69
184D:  MOVLW  07
184E:  MOVWF  6A
184F:  BCF    0A.4
1850:  BCF    0A.3
1851:  CALL   197
1852:  BSF    0A.4
1853:  BSF    0A.3
.................... 	} 
....................  
.................... 	//wyswietl tmperature wody 
....................         if (numDev>0){ 
1854:  MOVF   35,F
1855:  BTFSC  03.2
1856:  GOTO   0B1
....................                print_aqua_temp(now_t_aqua); 
1857:  MOVF   39,W
1858:  MOVWF  56
1859:  MOVF   38,W
185A:  MOVWF  55
185B:  MOVF   37,W
185C:  MOVWF  54
185D:  MOVF   36,W
185E:  MOVWF  53
....................         } 
....................  
....................         //ALARM ZBYT WYSOKIEJ TEMPERATURY 
....................         if (numDev>0){ 
*
18B1:  MOVF   35,F
18B2:  BTFSC  03.2
18B3:  GOTO   0FA
....................                    if(now_t_aqua >= 29){ 
18B4:  CLRF   5A
18B5:  CLRF   59
18B6:  MOVLW  68
18B7:  MOVWF  58
18B8:  MOVLW  83
18B9:  MOVWF  57
18BA:  MOVF   39,W
18BB:  MOVWF  5E
18BC:  MOVF   38,W
18BD:  MOVWF  5D
18BE:  MOVF   37,W
18BF:  MOVWF  5C
18C0:  MOVF   36,W
18C1:  MOVWF  5B
18C2:  BCF    0A.4
18C3:  CALL   5B6
18C4:  BSF    0A.4
18C5:  BTFSC  03.0
18C6:  GOTO   0C9
18C7:  BTFSS  03.2
18C8:  GOTO   0DB
....................                        lcd_gotoxy(5,1); 
18C9:  MOVLW  05
18CA:  MOVWF  65
18CB:  MOVLW  01
18CC:  MOVWF  66
18CD:  BCF    0A.4
18CE:  BCF    0A.3
18CF:  CALL   32C
18D0:  BSF    0A.4
18D1:  BSF    0A.3
....................                        lcd_send_byte(1,0x3); 
18D2:  MOVLW  01
18D3:  MOVWF  69
18D4:  MOVLW  03
18D5:  MOVWF  6A
18D6:  BCF    0A.4
18D7:  BCF    0A.3
18D8:  CALL   197
18D9:  BSF    0A.4
18DA:  BSF    0A.3
....................                     } 
....................                     if(now_t_aqua >= 29 && sec==0){ 
18DB:  CLRF   5A
18DC:  CLRF   59
18DD:  MOVLW  68
18DE:  MOVWF  58
18DF:  MOVLW  83
18E0:  MOVWF  57
18E1:  MOVF   39,W
18E2:  MOVWF  5E
18E3:  MOVF   38,W
18E4:  MOVWF  5D
18E5:  MOVF   37,W
18E6:  MOVWF  5C
18E7:  MOVF   36,W
18E8:  MOVWF  5B
18E9:  BCF    0A.4
18EA:  CALL   5B6
18EB:  BSF    0A.4
18EC:  BTFSC  03.0
18ED:  GOTO   0F0
18EE:  BTFSS  03.2
18EF:  GOTO   0FA
18F0:  MOVF   2E,F
18F1:  BTFSS  03.2
18F2:  GOTO   0FA
....................                        beep(500); 
18F3:  MOVLW  F4
18F4:  MOVWF  57
18F5:  BCF    0A.4
18F6:  BCF    0A.3
18F7:  CALL   5DD
18F8:  BSF    0A.4
18F9:  BSF    0A.3
....................                     } 
....................         } 
....................  
.................... 	print_time(); 
*
1935:  BSF    0A.3
1936:  BSF    0A.4
1937:  GOTO   2D7 (RETURN)
.................... } 
....................  
....................  
.................... #include "menu.c" 
.................... /* 
.................... wyswietlenie na ekranie 
.................... funkcji klawiszy przewijania menu 
.................... */ 
.................... void print_menubar(){ 
....................    lcd_gotoxy(1,2); 
*
0657:  MOVLW  01
0658:  MOVWF  65
0659:  MOVLW  02
065A:  MOVWF  66
065B:  CALL   32C
....................    lcd_putc("<"); //strzalka w lewo 
065C:  MOVLW  A7
065D:  BSF    03.6
065E:  MOVWF  0D
065F:  MOVLW  00
0660:  MOVWF  0F
0661:  BCF    03.6
0662:  CALL   362
....................    lcd_gotoxy(8,2); 
0663:  MOVLW  08
0664:  MOVWF  65
0665:  MOVLW  02
0666:  MOVWF  66
0667:  CALL   32C
....................    //lcd_putc((char)126); //enter 
....................    lcd_putc("ok"); 
0668:  MOVLW  A8
0669:  BSF    03.6
066A:  MOVWF  0D
066B:  MOVLW  00
066C:  MOVWF  0F
066D:  BCF    03.6
066E:  CALL   362
....................    lcd_gotoxy(16,2); 
066F:  MOVLW  10
0670:  MOVWF  65
0671:  MOVLW  02
0672:  MOVWF  66
0673:  CALL   32C
....................    lcd_putc(">"); //strzalka w prawo 
0674:  MOVLW  AA
0675:  BSF    03.6
0676:  MOVWF  0D
0677:  MOVLW  00
0678:  MOVWF  0F
0679:  BCF    03.6
067A:  CALL   362
067B:  RETURN
.................... } 
....................  
....................  
.................... //////////////////////////////////////////// 
....................  
....................  
....................  
.................... /* 
.................... ustawienie w menu temperatury 
.................... */ 
.................... void SetTemperature(){ 
*
105E:  BSF    53.0
....................     boolean run=true; 
....................     int8 t; 
....................  
....................     t = read_eeprom(0x00); 
105F:  BSF    03.6
1060:  CLRF   0D
1061:  BSF    03.5
1062:  BCF    0C.7
1063:  BSF    0C.0
1064:  BCF    03.5
1065:  MOVF   0C,W
1066:  BCF    03.6
1067:  MOVWF  54
....................     //jesli nie jest ustawiona to napewno nie jest 255 stopni ustawienie domyslnej 25 stopni 
....................     if (t == 255) t=25; 
1068:  INCFSZ 54,W
1069:  GOTO   06C
106A:  MOVLW  19
106B:  MOVWF  54
....................  
....................     lcd_putc("\f"); 
106C:  MOVLW  AB
106D:  BSF    03.6
106E:  MOVWF  0D
106F:  MOVLW  00
1070:  MOVWF  0F
1071:  BCF    0A.4
1072:  BCF    03.6
1073:  CALL   362
1074:  BSF    0A.4
....................     print_menubar(); 
1075:  BCF    0A.4
1076:  CALL   657
1077:  BSF    0A.4
....................     delay_ms(800); 
1078:  MOVLW  04
1079:  MOVWF  55
107A:  MOVLW  C8
107B:  MOVWF  65
107C:  BCF    0A.4
107D:  CALL   183
107E:  BSF    0A.4
107F:  DECFSZ 55,F
1080:  GOTO   07A
....................     while(run){ 
1081:  BTFSS  53.0
1082:  GOTO   13D
....................         delay_ms(800); 
1083:  MOVLW  04
1084:  MOVWF  55
1085:  MOVLW  C8
1086:  MOVWF  65
1087:  BCF    0A.4
1088:  CALL   183
1089:  BSF    0A.4
108A:  DECFSZ 55,F
108B:  GOTO   085
....................         lcd_gotoxy(2,1); 
108C:  MOVLW  02
108D:  MOVWF  65
108E:  MOVLW  01
108F:  MOVWF  66
1090:  BCF    0A.4
1091:  CALL   32C
1092:  BSF    0A.4
....................         printf(lcd_putc, "Utrzymuj %u ", t);  
1093:  MOVLW  AC
1094:  BSF    03.6
1095:  MOVWF  0D
1096:  MOVLW  00
1097:  MOVWF  0F
1098:  BCF    03.0
1099:  MOVLW  09
109A:  BCF    03.6
109B:  MOVWF  56
109C:  BCF    0A.4
109D:  CALL   67C
109E:  BSF    0A.4
109F:  MOVF   54,W
10A0:  MOVWF  55
10A1:  MOVLW  1B
10A2:  MOVWF  56
*
1103:  MOVLW  20
1104:  MOVWF  64
1105:  BCF    0A.4
1106:  CALL   33E
1107:  BSF    0A.4
....................         lcd_send_byte(1,0x2); //stopnie celsjusza 
1108:  MOVLW  01
1109:  MOVWF  69
110A:  MOVLW  02
110B:  MOVWF  6A
110C:  BCF    0A.4
110D:  CALL   197
110E:  BSF    0A.4
....................          
....................         switch(getButton()){ 
110F:  BCF    0A.4
1110:  CALL   5EC
1111:  BSF    0A.4
1112:  MOVF   78,W
1113:  XORLW  01
1114:  BTFSC  03.2
1115:  GOTO   11D
1116:  XORLW  01
1117:  BTFSC  03.2
1118:  GOTO   120
1119:  XORLW  02
111A:  BTFSC  03.2
111B:  GOTO   123
111C:  GOTO   13C
....................             case E_DOWN: 
....................                 t = t-1; 
111D:  MOVLW  01
111E:  SUBWF  54,F
....................                 break; 
111F:  GOTO   13C
....................             case E_UP: 
....................                 t = t+1; 
1120:  MOVLW  01
1121:  ADDWF  54,F
....................                 break; 
1122:  GOTO   13C
....................             case E_OK: 
....................                 write_eeprom(0x00,t); 
1123:  MOVF   0B,W
1124:  MOVWF  77
1125:  BCF    0B.7
1126:  BSF    03.6
1127:  CLRF   0D
1128:  BCF    03.6
1129:  MOVF   54,W
112A:  BSF    03.6
112B:  MOVWF  0C
112C:  BSF    03.5
112D:  BCF    0C.7
112E:  BSF    0C.2
112F:  MOVLW  55
1130:  MOVWF  0D
1131:  MOVLW  AA
1132:  MOVWF  0D
1133:  BSF    0C.1
1134:  BTFSC  0C.1
1135:  GOTO   134
1136:  BCF    0C.2
1137:  MOVF   77,W
1138:  BCF    03.5
1139:  BCF    03.6
113A:  IORWF  0B,F
....................                 run=false; 
113B:  BCF    53.0
....................         } 
113C:  GOTO   081
....................     } 
....................  
.................... } 
....................  
.................... /* 
.................... ustawianie godziny 
.................... */ 
.................... int8 menu_hour(int8 h) 
*
0751:  BSF    55.0
.................... { 
....................    boolean run=true; 
....................    lcd_putc("\f"); 
0752:  MOVLW  B3
0753:  BSF    03.6
0754:  MOVWF  0D
0755:  MOVLW  00
0756:  MOVWF  0F
0757:  BCF    03.6
0758:  CALL   362
....................    print_menubar(); 
0759:  CALL   657
....................    delay_ms(800); 
075A:  MOVLW  04
075B:  MOVWF  56
075C:  MOVLW  C8
075D:  MOVWF  65
075E:  CALL   183
075F:  DECFSZ 56,F
0760:  GOTO   75C
....................    //ustawianie godziny 
....................    while(run){ 
0761:  BTFSS  55.0
0762:  GOTO   799
....................         //delay_ms(800); 
....................         lcd_gotoxy(2,1); 
0763:  MOVLW  02
0764:  MOVWF  65
0765:  MOVLW  01
0766:  MOVWF  66
0767:  CALL   32C
....................         printf(lcd_putc, "Godzina %02d  ", h);  
0768:  MOVLW  B4
0769:  BSF    03.6
076A:  MOVWF  0D
076B:  MOVLW  00
076C:  MOVWF  0F
076D:  BCF    03.0
076E:  MOVLW  08
076F:  BCF    03.6
0770:  MOVWF  56
0771:  CALL   67C
0772:  MOVF   54,W
0773:  MOVWF  56
0774:  MOVLW  01
0775:  MOVWF  57
0776:  CALL   6D3
0777:  MOVLW  20
0778:  MOVWF  64
0779:  CALL   33E
077A:  MOVLW  20
077B:  MOVWF  64
077C:  CALL   33E
....................          
....................         switch(getButton()){ 
077D:  CALL   5EC
077E:  MOVF   78,W
077F:  XORLW  01
0780:  BTFSC  03.2
0781:  GOTO   789
0782:  XORLW  01
0783:  BTFSC  03.2
0784:  GOTO   790
0785:  XORLW  02
0786:  BTFSC  03.2
0787:  GOTO   797
0788:  GOTO   798
....................             case E_DOWN: 
....................                 h = h-1; 
0789:  MOVLW  01
078A:  SUBWF  54,F
....................                 if(h<0 || h==255) h=24; 
078B:  INCFSZ 54,W
078C:  GOTO   78F
078D:  MOVLW  18
078E:  MOVWF  54
....................                 break; 
078F:  GOTO   798
....................             case E_UP: 
....................                 h = h+1; 
0790:  MOVLW  01
0791:  ADDWF  54,F
....................                 if(h>24) h=0; 
0792:  MOVF   54,W
0793:  SUBLW  18
0794:  BTFSS  03.0
0795:  CLRF   54
....................                 break; 
0796:  GOTO   798
....................             case E_OK:                 
....................                 run=false; 
0797:  BCF    55.0
....................         } 
0798:  GOTO   761
....................     } 
....................     return h; 
0799:  MOVF   54,W
079A:  MOVWF  78
079B:  RETURN
.................... } 
....................  
.................... /* 
.................... ustawianie minut 
.................... */ 
.................... int8 menu_minute(int8 m) 
*
129E:  BSF    55.0
*
14B6:  BSF    55.0
.................... { 
....................    boolean run=true; 
....................    lcd_putc("\f"); 
*
129F:  MOVLW  BC
12A0:  BSF    03.6
12A1:  MOVWF  0D
12A2:  MOVLW  00
12A3:  MOVWF  0F
12A4:  BCF    0A.4
12A5:  BCF    03.6
12A6:  CALL   362
12A7:  BSF    0A.4
*
14B7:  MOVLW  BC
14B8:  BSF    03.6
14B9:  MOVWF  0D
14BA:  MOVLW  00
14BB:  MOVWF  0F
14BC:  BCF    0A.4
14BD:  BCF    03.6
14BE:  CALL   362
14BF:  BSF    0A.4
....................    print_menubar(); 
*
12A8:  BCF    0A.4
12A9:  CALL   657
12AA:  BSF    0A.4
*
14C0:  BCF    0A.4
14C1:  CALL   657
14C2:  BSF    0A.4
....................    delay_ms(800); 
*
12AB:  MOVLW  04
12AC:  MOVWF  56
12AD:  MOVLW  C8
12AE:  MOVWF  65
12AF:  BCF    0A.4
12B0:  CALL   183
12B1:  BSF    0A.4
12B2:  DECFSZ 56,F
12B3:  GOTO   2AD
*
14C3:  MOVLW  04
14C4:  MOVWF  56
14C5:  MOVLW  C8
14C6:  MOVWF  65
14C7:  BCF    0A.4
14C8:  CALL   183
14C9:  BSF    0A.4
14CA:  DECFSZ 56,F
14CB:  GOTO   4C5
....................    while(run){ 
*
12B4:  BTFSS  55.0
12B5:  GOTO   2F8
*
14CC:  BTFSS  55.0
14CD:  GOTO   510
....................         //delay_ms(800); 
....................         lcd_gotoxy(2,1); 
*
12B6:  MOVLW  02
12B7:  MOVWF  65
12B8:  MOVLW  01
12B9:  MOVWF  66
12BA:  BCF    0A.4
12BB:  CALL   32C
12BC:  BSF    0A.4
*
14CE:  MOVLW  02
14CF:  MOVWF  65
14D0:  MOVLW  01
14D1:  MOVWF  66
14D2:  BCF    0A.4
14D3:  CALL   32C
14D4:  BSF    0A.4
....................         printf(lcd_putc, "Minuta %02d  ", m);  
*
12BD:  MOVLW  BD
12BE:  BSF    03.6
12BF:  MOVWF  0D
12C0:  MOVLW  00
12C1:  MOVWF  0F
12C2:  BCF    03.0
12C3:  MOVLW  07
12C4:  BCF    03.6
12C5:  MOVWF  56
12C6:  BCF    0A.4
12C7:  CALL   67C
12C8:  BSF    0A.4
12C9:  MOVF   54,W
12CA:  MOVWF  56
12CB:  MOVLW  01
12CC:  MOVWF  57
12CD:  BCF    0A.4
12CE:  CALL   6D3
12CF:  BSF    0A.4
12D0:  MOVLW  20
12D1:  MOVWF  64
12D2:  BCF    0A.4
12D3:  CALL   33E
12D4:  BSF    0A.4
12D5:  MOVLW  20
12D6:  MOVWF  64
12D7:  BCF    0A.4
12D8:  CALL   33E
12D9:  BSF    0A.4
*
14D5:  MOVLW  BD
14D6:  BSF    03.6
14D7:  MOVWF  0D
14D8:  MOVLW  00
14D9:  MOVWF  0F
14DA:  BCF    03.0
14DB:  MOVLW  07
14DC:  BCF    03.6
14DD:  MOVWF  56
14DE:  BCF    0A.4
14DF:  CALL   67C
14E0:  BSF    0A.4
14E1:  MOVF   54,W
14E2:  MOVWF  56
14E3:  MOVLW  01
14E4:  MOVWF  57
14E5:  BCF    0A.4
14E6:  CALL   6D3
14E7:  BSF    0A.4
14E8:  MOVLW  20
14E9:  MOVWF  64
14EA:  BCF    0A.4
14EB:  CALL   33E
14EC:  BSF    0A.4
14ED:  MOVLW  20
14EE:  MOVWF  64
14EF:  BCF    0A.4
14F0:  CALL   33E
14F1:  BSF    0A.4
....................          
....................         switch(getButton()){ 
*
12DA:  BCF    0A.4
12DB:  CALL   5EC
12DC:  BSF    0A.4
12DD:  MOVF   78,W
12DE:  XORLW  01
12DF:  BTFSC  03.2
12E0:  GOTO   2E8
12E1:  XORLW  01
12E2:  BTFSC  03.2
12E3:  GOTO   2EF
12E4:  XORLW  02
12E5:  BTFSC  03.2
12E6:  GOTO   2F6
12E7:  GOTO   2F7
*
14F2:  BCF    0A.4
14F3:  CALL   5EC
14F4:  BSF    0A.4
14F5:  MOVF   78,W
14F6:  XORLW  01
14F7:  BTFSC  03.2
14F8:  GOTO   500
14F9:  XORLW  01
14FA:  BTFSC  03.2
14FB:  GOTO   507
14FC:  XORLW  02
14FD:  BTFSC  03.2
14FE:  GOTO   50E
14FF:  GOTO   50F
....................             case E_DOWN: 
....................                 m = m-1; 
*
12E8:  MOVLW  01
12E9:  SUBWF  54,F
*
1500:  MOVLW  01
1501:  SUBWF  54,F
....................                 if(m<0 || m==255) m=59; 
*
12EA:  INCFSZ 54,W
12EB:  GOTO   2EE
12EC:  MOVLW  3B
12ED:  MOVWF  54
*
1502:  INCFSZ 54,W
1503:  GOTO   506
1504:  MOVLW  3B
1505:  MOVWF  54
....................                 break; 
*
12EE:  GOTO   2F7
*
1506:  GOTO   50F
....................             case E_UP: 
....................                 m = m+1; 
*
12EF:  MOVLW  01
12F0:  ADDWF  54,F
*
1507:  MOVLW  01
1508:  ADDWF  54,F
....................                 if(m>59) m=0; 
*
12F1:  MOVF   54,W
12F2:  SUBLW  3B
12F3:  BTFSS  03.0
12F4:  CLRF   54
*
1509:  MOVF   54,W
150A:  SUBLW  3B
150B:  BTFSS  03.0
150C:  CLRF   54
....................                 break; 
*
12F5:  GOTO   2F7
*
150D:  GOTO   50F
....................             case E_OK:                 
....................                 run=false; 
*
12F6:  BCF    55.0
*
150E:  BCF    55.0
....................         } 
*
12F7:  GOTO   2B4
*
150F:  GOTO   4CC
....................     } 
....................     return m; 
*
12F8:  MOVF   54,W
12F9:  MOVWF  78
*
1510:  MOVF   54,W
1511:  MOVWF  78
.................... } 
....................  
.................... /* 
.................... ustawianie sekund 
.................... */ 
.................... int8 menu_sec(int8 s) 
*
13C2:  BSF    55.0
.................... { 
....................    boolean run=true; 
....................    lcd_putc("\f"); 
13C3:  MOVLW  C4
13C4:  BSF    03.6
13C5:  MOVWF  0D
13C6:  MOVLW  00
13C7:  MOVWF  0F
13C8:  BCF    0A.4
13C9:  BCF    03.6
13CA:  CALL   362
13CB:  BSF    0A.4
....................    print_menubar(); 
13CC:  BCF    0A.4
13CD:  CALL   657
13CE:  BSF    0A.4
....................    delay_ms(800); 
13CF:  MOVLW  04
13D0:  MOVWF  56
13D1:  MOVLW  C8
13D2:  MOVWF  65
13D3:  BCF    0A.4
13D4:  CALL   183
13D5:  BSF    0A.4
13D6:  DECFSZ 56,F
13D7:  GOTO   3D1
....................    while(run){ 
13D8:  BTFSS  55.0
13D9:  GOTO   41C
....................         //delay_ms(800); 
....................         lcd_gotoxy(2,1); 
13DA:  MOVLW  02
13DB:  MOVWF  65
13DC:  MOVLW  01
13DD:  MOVWF  66
13DE:  BCF    0A.4
13DF:  CALL   32C
13E0:  BSF    0A.4
....................         printf(lcd_putc, "Sekund %02d  ", s);  
13E1:  MOVLW  C5
13E2:  BSF    03.6
13E3:  MOVWF  0D
13E4:  MOVLW  00
13E5:  MOVWF  0F
13E6:  BCF    03.0
13E7:  MOVLW  07
13E8:  BCF    03.6
13E9:  MOVWF  56
13EA:  BCF    0A.4
13EB:  CALL   67C
13EC:  BSF    0A.4
13ED:  MOVF   54,W
13EE:  MOVWF  56
13EF:  MOVLW  01
13F0:  MOVWF  57
13F1:  BCF    0A.4
13F2:  CALL   6D3
13F3:  BSF    0A.4
13F4:  MOVLW  20
13F5:  MOVWF  64
13F6:  BCF    0A.4
13F7:  CALL   33E
13F8:  BSF    0A.4
13F9:  MOVLW  20
13FA:  MOVWF  64
13FB:  BCF    0A.4
13FC:  CALL   33E
13FD:  BSF    0A.4
....................          
....................         switch(getButton()){ 
13FE:  BCF    0A.4
13FF:  CALL   5EC
1400:  BSF    0A.4
1401:  MOVF   78,W
1402:  XORLW  01
1403:  BTFSC  03.2
1404:  GOTO   40C
1405:  XORLW  01
1406:  BTFSC  03.2
1407:  GOTO   413
1408:  XORLW  02
1409:  BTFSC  03.2
140A:  GOTO   41A
140B:  GOTO   41B
....................             case E_DOWN: 
....................                 s = s-1; 
140C:  MOVLW  01
140D:  SUBWF  54,F
....................                 if(s<0 || s==255) s=59; 
140E:  INCFSZ 54,W
140F:  GOTO   412
1410:  MOVLW  3B
1411:  MOVWF  54
....................                 break; 
1412:  GOTO   41B
....................             case E_UP: 
....................                 s = s+1; 
1413:  MOVLW  01
1414:  ADDWF  54,F
....................                 if(s>59) s=0; 
1415:  MOVF   54,W
1416:  SUBLW  3B
1417:  BTFSS  03.0
1418:  CLRF   54
....................                 break; 
1419:  GOTO   41B
....................             case E_OK:                 
....................                 run=false; 
141A:  BCF    55.0
....................         } 
141B:  GOTO   3D8
....................     } 
....................     return s; 
141C:  MOVF   54,W
141D:  MOVWF  78
.................... } 
....................  
.................... /////////////////////////////////////////// 
....................  
....................  
.................... /* 
.................... obsluga menu 
.................... */ 
.................... void change_menu(){ 
....................  
....................     #define MENU_ELEMENTS 7 
....................      
....................     //przesuniecie sie po menu w gore 
....................     if (menu_event == E_UP && menu_pos < MENU_ELEMENTS && menu_select==false){ menu_pos++;} 
*
1000:  MOVF   2B,F
1001:  BTFSS  03.2
1002:  GOTO   009
1003:  MOVF   2C,W
1004:  SUBLW  06
1005:  BTFSS  03.0
1006:  GOTO   009
1007:  BTFSS  2D.0
1008:  INCF   2C,F
....................     //przesuniecie sie po menu w dol 
....................     if (menu_event == E_DOWN && menu_select==false){ 
1009:  DECFSZ 2B,W
100A:  GOTO   022
100B:  BTFSC  2D.0
100C:  GOTO   022
.................... 	if (menu_pos > 0){ 
100D:  MOVF   2C,F
100E:  BTFSS  03.2
.................... 	 menu_pos--; 
100F:  DECF   2C,F
.................... 	} 
.................... 	if (menu_pos == 0){ 
1010:  MOVF   2C,F
1011:  BTFSS  03.2
1012:  GOTO   022
.................... 		delay_ms(800); 
1013:  MOVLW  04
1014:  MOVWF  53
1015:  MOVLW  C8
1016:  MOVWF  65
1017:  BCF    0A.4
1018:  CALL   183
1019:  BSF    0A.4
101A:  DECFSZ 53,F
101B:  GOTO   015
.................... 		menu_event == E_IDLE; 
101C:  MOVF   2B,W
101D:  SUBLW  03
101E:  BTFSS  03.2
101F:  MOVLW  00
.................... 		enterimp=4; 
1020:  MOVLW  04
1021:  MOVWF  4A
.................... 	} 
....................     } 
....................     //zatwierdzenie opcji w menu 
....................     if (menu_event == E_OK && menu_pos!=0) menu_select = true; 
1022:  MOVF   2B,W
1023:  SUBLW  02
1024:  BTFSS  03.2
1025:  GOTO   029
1026:  MOVF   2C,F
1027:  BTFSS  03.2
1028:  BSF    2D.0
....................  
....................     switch(menu_pos){ 
1029:  MOVF   2C,W
102A:  ADDLW  F8
102B:  BTFSC  03.0
102C:  GOTO   7C2
102D:  ADDLW  08
102E:  GOTO   7C5
....................         case 0: 
....................             lcd_putc("\fOpusc menu"); 
102F:  MOVLW  CC
1030:  BSF    03.6
1031:  MOVWF  0D
1032:  MOVLW  00
1033:  MOVWF  0F
1034:  BCF    0A.4
1035:  BCF    03.6
1036:  CALL   362
1037:  BSF    0A.4
....................             print_menubar(); 
1038:  BCF    0A.4
1039:  CALL   657
103A:  BSF    0A.4
....................             delay_ms(1000); 
103B:  MOVLW  04
103C:  MOVWF  53
103D:  MOVLW  FA
103E:  MOVWF  65
103F:  BCF    0A.4
1040:  CALL   183
1041:  BSF    0A.4
1042:  DECFSZ 53,F
1043:  GOTO   03D
....................             menu_select=false; 
1044:  BCF    2D.0
....................             menu_pos=0; 
1045:  CLRF   2C
....................             lcd_putc("\f"); 
1046:  MOVLW  D2
1047:  BSF    03.6
1048:  MOVWF  0D
1049:  MOVLW  00
104A:  MOVWF  0F
104B:  BCF    0A.4
104C:  BCF    03.6
104D:  CALL   362
104E:  BSF    0A.4
....................             break; 
104F:  GOTO   7C2
....................         case 1: 
....................             lcd_putc("\fTemperatura"); 
1050:  MOVLW  D3
1051:  BSF    03.6
1052:  MOVWF  0D
1053:  MOVLW  00
1054:  MOVWF  0F
1055:  BCF    0A.4
1056:  BCF    03.6
1057:  CALL   362
1058:  BSF    0A.4
....................             print_menubar(); 
1059:  BCF    0A.4
105A:  CALL   657
105B:  BSF    0A.4
....................             if (menu_select) { 
105C:  BTFSS  2D.0
105D:  GOTO   152
....................                 SetTemperature(); 
....................                 beep(); 
*
113D:  MOVLW  0A
113E:  MOVWF  57
113F:  BCF    0A.4
1140:  CALL   5DD
1141:  BSF    0A.4
....................                 beep(); 
1142:  MOVLW  0A
1143:  MOVWF  57
1144:  BCF    0A.4
1145:  CALL   5DD
1146:  BSF    0A.4
....................                 menu_select=false; 
1147:  BCF    2D.0
....................                 menu_pos=0; 
1148:  CLRF   2C
....................                 lcd_putc("\f"); 
1149:  MOVLW  DA
114A:  BSF    03.6
114B:  MOVWF  0D
114C:  MOVLW  00
114D:  MOVWF  0F
114E:  BCF    0A.4
114F:  BCF    03.6
1150:  CALL   362
1151:  BSF    0A.4
....................             } 
....................             break; 
1152:  GOTO   7C2
....................         case 2: 
....................             lcd_putc("\fWl.oswietlenia"); 
1153:  MOVLW  DB
1154:  BSF    03.6
1155:  MOVWF  0D
1156:  MOVLW  00
1157:  MOVWF  0F
1158:  BCF    0A.4
1159:  BCF    03.6
115A:  CALL   362
115B:  BSF    0A.4
....................             print_menubar(); 
115C:  BCF    0A.4
115D:  CALL   657
115E:  BSF    0A.4
....................             if (menu_select) { 
115F:  BTFSS  2D.0
1160:  GOTO   1D5
....................                 write_eeprom(EEPROM_LIGHT_HOUR_ON,menu_hour(read_eeprom(EEPROM_LIGHT_HOUR_ON))); 
1161:  MOVLW  01
1162:  BSF    03.6
1163:  MOVWF  0D
1164:  BSF    03.5
1165:  BCF    0C.7
1166:  BSF    0C.0
1167:  BCF    03.5
1168:  MOVF   0C,W
1169:  BCF    03.6
116A:  MOVWF  53
116B:  MOVF   53,W
116C:  MOVWF  54
116D:  BCF    0A.4
116E:  CALL   751
116F:  BSF    0A.4
1170:  MOVF   78,W
1171:  MOVWF  53
1172:  MOVF   0B,W
1173:  MOVWF  77
1174:  BCF    0B.7
1175:  MOVLW  01
1176:  BSF    03.6
1177:  MOVWF  0D
1178:  BCF    03.6
1179:  MOVF   53,W
117A:  BSF    03.6
117B:  MOVWF  0C
117C:  BSF    03.5
117D:  BCF    0C.7
117E:  BSF    0C.2
117F:  MOVLW  55
1180:  MOVWF  0D
1181:  MOVLW  AA
1182:  MOVWF  0D
1183:  BSF    0C.1
1184:  BTFSC  0C.1
1185:  GOTO   184
1186:  BCF    0C.2
1187:  MOVF   77,W
1188:  BCF    03.5
1189:  BCF    03.6
118A:  IORWF  0B,F
....................                 //write_eeprom(EEPROM_LIGHT_MIN_ON,menu_minute(read_eeprom(EEPROM_LIGHT_MIN_ON))); 
....................                 //printf(lcd_putc, "\fUstawiono %02d:%02d", read_eeprom(EEPROM_LIGHT_HOUR_ON), read_eeprom(EEPROM_LIGHT_MIN_ON)); 
.................... 		LIGHT_HOUR_ON = read_eeprom(EEPROM_LIGHT_HOUR_ON); 
118B:  MOVLW  01
118C:  BSF    03.6
118D:  MOVWF  0D
118E:  BSF    03.5
118F:  BCF    0C.7
1190:  BSF    0C.0
1191:  BCF    03.5
1192:  MOVF   0C,W
1193:  BCF    03.6
1194:  MOVWF  31
.................... 		printf(lcd_putc, "\fUstawiono %02d:00", LIGHT_HOUR_ON); 
1195:  MOVLW  E3
1196:  BSF    03.6
1197:  MOVWF  0D
1198:  MOVLW  00
1199:  MOVWF  0F
119A:  BCF    03.0
119B:  MOVLW  0B
119C:  BCF    03.6
119D:  MOVWF  56
119E:  BCF    0A.4
119F:  CALL   67C
11A0:  BSF    0A.4
11A1:  MOVF   31,W
11A2:  MOVWF  56
11A3:  MOVLW  01
11A4:  MOVWF  57
11A5:  BCF    0A.4
11A6:  CALL   6D3
11A7:  BSF    0A.4
11A8:  MOVLW  3A
11A9:  MOVWF  64
11AA:  BCF    0A.4
11AB:  CALL   33E
11AC:  BSF    0A.4
11AD:  MOVLW  30
11AE:  MOVWF  64
11AF:  BCF    0A.4
11B0:  CALL   33E
11B1:  BSF    0A.4
11B2:  MOVLW  30
11B3:  MOVWF  64
11B4:  BCF    0A.4
11B5:  CALL   33E
11B6:  BSF    0A.4
....................                 delay_ms(2000); 
11B7:  MOVLW  08
11B8:  MOVWF  53
11B9:  MOVLW  FA
11BA:  MOVWF  65
11BB:  BCF    0A.4
11BC:  CALL   183
11BD:  BSF    0A.4
11BE:  DECFSZ 53,F
11BF:  GOTO   1B9
....................                 beep(); 
11C0:  MOVLW  0A
11C1:  MOVWF  57
11C2:  BCF    0A.4
11C3:  CALL   5DD
11C4:  BSF    0A.4
....................                 beep(); 
11C5:  MOVLW  0A
11C6:  MOVWF  57
11C7:  BCF    0A.4
11C8:  CALL   5DD
11C9:  BSF    0A.4
....................                 menu_select=false; 
11CA:  BCF    2D.0
....................                 menu_pos=0; 
11CB:  CLRF   2C
....................                 lcd_putc("\f"); 
11CC:  MOVLW  ED
11CD:  BSF    03.6
11CE:  MOVWF  0D
11CF:  MOVLW  00
11D0:  MOVWF  0F
11D1:  BCF    0A.4
11D2:  BCF    03.6
11D3:  CALL   362
11D4:  BSF    0A.4
....................             } 
....................             break;             
11D5:  GOTO   7C2
....................         case 3: 
....................             lcd_putc("\fWyl.oswietlenia"); 
11D6:  MOVLW  EE
11D7:  BSF    03.6
11D8:  MOVWF  0D
11D9:  MOVLW  00
11DA:  MOVWF  0F
11DB:  BCF    0A.4
11DC:  BCF    03.6
11DD:  CALL   362
11DE:  BSF    0A.4
....................             print_menubar(); 
11DF:  BCF    0A.4
11E0:  CALL   657
11E1:  BSF    0A.4
....................             if (menu_select) { 
11E2:  BTFSS  2D.0
11E3:  GOTO   258
....................                 write_eeprom(EEPROM_LIGHT_HOUR_OFF,menu_hour(read_eeprom(EEPROM_LIGHT_HOUR_OFF))); 
11E4:  MOVLW  03
11E5:  BSF    03.6
11E6:  MOVWF  0D
11E7:  BSF    03.5
11E8:  BCF    0C.7
11E9:  BSF    0C.0
11EA:  BCF    03.5
11EB:  MOVF   0C,W
11EC:  BCF    03.6
11ED:  MOVWF  53
11EE:  MOVF   53,W
11EF:  MOVWF  54
11F0:  BCF    0A.4
11F1:  CALL   751
11F2:  BSF    0A.4
11F3:  MOVF   78,W
11F4:  MOVWF  53
11F5:  MOVF   0B,W
11F6:  MOVWF  77
11F7:  BCF    0B.7
11F8:  MOVLW  03
11F9:  BSF    03.6
11FA:  MOVWF  0D
11FB:  BCF    03.6
11FC:  MOVF   53,W
11FD:  BSF    03.6
11FE:  MOVWF  0C
11FF:  BSF    03.5
1200:  BCF    0C.7
1201:  BSF    0C.2
1202:  MOVLW  55
1203:  MOVWF  0D
1204:  MOVLW  AA
1205:  MOVWF  0D
1206:  BSF    0C.1
1207:  BTFSC  0C.1
1208:  GOTO   207
1209:  BCF    0C.2
120A:  MOVF   77,W
120B:  BCF    03.5
120C:  BCF    03.6
120D:  IORWF  0B,F
....................                 //write_eeprom(EEPROM_LIGHT_MIN_OFF,menu_minute(read_eeprom(EEPROM_LIGHT_MIN_OFF))); 
....................                 //printf(lcd_putc, "\fUstawiono %02d:%02d", read_eeprom(EEPROM_LIGHT_HOUR_OFF), read_eeprom(EEPROM_LIGHT_MIN_OFF)); 
.................... 		LIGHT_HOUR_OFF = read_eeprom(EEPROM_LIGHT_HOUR_OFF); 
120E:  MOVLW  03
120F:  BSF    03.6
1210:  MOVWF  0D
1211:  BSF    03.5
1212:  BCF    0C.7
1213:  BSF    0C.0
1214:  BCF    03.5
1215:  MOVF   0C,W
1216:  BCF    03.6
1217:  MOVWF  32
.................... 		printf(lcd_putc, "\fUstawiono %02d:00", LIGHT_HOUR_OFF); 
1218:  MOVLW  F7
1219:  BSF    03.6
121A:  MOVWF  0D
121B:  MOVLW  00
121C:  MOVWF  0F
121D:  BCF    03.0
121E:  MOVLW  0B
121F:  BCF    03.6
1220:  MOVWF  56
1221:  BCF    0A.4
1222:  CALL   67C
1223:  BSF    0A.4
1224:  MOVF   32,W
1225:  MOVWF  56
1226:  MOVLW  01
1227:  MOVWF  57
1228:  BCF    0A.4
1229:  CALL   6D3
122A:  BSF    0A.4
122B:  MOVLW  3A
122C:  MOVWF  64
122D:  BCF    0A.4
122E:  CALL   33E
122F:  BSF    0A.4
1230:  MOVLW  30
1231:  MOVWF  64
1232:  BCF    0A.4
1233:  CALL   33E
1234:  BSF    0A.4
1235:  MOVLW  30
1236:  MOVWF  64
1237:  BCF    0A.4
1238:  CALL   33E
1239:  BSF    0A.4
....................                 delay_ms(2000); 
123A:  MOVLW  08
123B:  MOVWF  53
123C:  MOVLW  FA
123D:  MOVWF  65
123E:  BCF    0A.4
123F:  CALL   183
1240:  BSF    0A.4
1241:  DECFSZ 53,F
1242:  GOTO   23C
....................                 beep(); 
1243:  MOVLW  0A
1244:  MOVWF  57
1245:  BCF    0A.4
1246:  CALL   5DD
1247:  BSF    0A.4
....................                 beep(); 
1248:  MOVLW  0A
1249:  MOVWF  57
124A:  BCF    0A.4
124B:  CALL   5DD
124C:  BSF    0A.4
....................                 menu_select=false; 
124D:  BCF    2D.0
....................                 menu_pos=0; 
124E:  CLRF   2C
....................                 lcd_putc("\f"); 
124F:  MOVLW  01
1250:  BSF    03.6
1251:  MOVWF  0D
1252:  MOVLW  01
1253:  MOVWF  0F
1254:  BCF    0A.4
1255:  BCF    03.6
1256:  CALL   362
1257:  BSF    0A.4
....................             } 
....................             break; 
1258:  GOTO   7C2
....................         case 4: 
....................             lcd_putc("\fNapowietrzanie"); 
1259:  MOVLW  02
125A:  BSF    03.6
125B:  MOVWF  0D
125C:  MOVLW  01
125D:  MOVWF  0F
125E:  BCF    0A.4
125F:  BCF    03.6
1260:  CALL   362
1261:  BSF    0A.4
....................             print_menubar(); 
1262:  BCF    0A.4
1263:  CALL   657
1264:  BSF    0A.4
....................             if (menu_select) { 
1265:  BTFSS  2D.0
1266:  GOTO   37C
....................                 last_air_hour_on = 0; 
1267:  CLRF   33
....................                 write_eeprom(EEPROM_AIR_HOUR_CYCLE,menu_hour(read_eeprom(EEPROM_AIR_HOUR_CYCLE))); 
1268:  MOVLW  07
1269:  BSF    03.6
126A:  MOVWF  0D
126B:  BSF    03.5
126C:  BCF    0C.7
126D:  BSF    0C.0
126E:  BCF    03.5
126F:  MOVF   0C,W
1270:  BCF    03.6
1271:  MOVWF  53
1272:  MOVF   53,W
1273:  MOVWF  54
1274:  BCF    0A.4
1275:  CALL   751
1276:  BSF    0A.4
1277:  MOVF   78,W
1278:  MOVWF  53
1279:  MOVF   0B,W
127A:  MOVWF  77
127B:  BCF    0B.7
127C:  MOVLW  07
127D:  BSF    03.6
127E:  MOVWF  0D
127F:  BCF    03.6
1280:  MOVF   53,W
1281:  BSF    03.6
1282:  MOVWF  0C
1283:  BSF    03.5
1284:  BCF    0C.7
1285:  BSF    0C.2
1286:  MOVLW  55
1287:  MOVWF  0D
1288:  MOVLW  AA
1289:  MOVWF  0D
128A:  BSF    0C.1
128B:  BTFSC  0C.1
128C:  GOTO   28B
128D:  BCF    0C.2
128E:  MOVF   77,W
128F:  BCF    03.5
1290:  BCF    03.6
1291:  IORWF  0B,F
....................                 write_eeprom(EEPROM_AIR_MIN_DELAY,menu_minute(read_eeprom(EEPROM_AIR_MIN_DELAY))); 
1292:  MOVLW  08
1293:  BSF    03.6
1294:  MOVWF  0D
1295:  BSF    03.5
1296:  BCF    0C.7
1297:  BSF    0C.0
1298:  BCF    03.5
1299:  MOVF   0C,W
129A:  BCF    03.6
129B:  MOVWF  53
129C:  MOVF   53,W
129D:  MOVWF  54
*
12FA:  MOVF   78,W
12FB:  MOVWF  53
12FC:  MOVF   0B,W
12FD:  MOVWF  77
12FE:  BCF    0B.7
12FF:  MOVLW  08
1300:  BSF    03.6
1301:  MOVWF  0D
1302:  BCF    03.6
1303:  MOVF   53,W
1304:  BSF    03.6
1305:  MOVWF  0C
1306:  BSF    03.5
1307:  BCF    0C.7
1308:  BSF    0C.2
1309:  MOVLW  55
130A:  MOVWF  0D
130B:  MOVLW  AA
130C:  MOVWF  0D
130D:  BSF    0C.1
130E:  BTFSC  0C.1
130F:  GOTO   30E
1310:  BCF    0C.2
1311:  MOVF   77,W
1312:  BCF    03.5
1313:  BCF    03.6
1314:  IORWF  0B,F
....................                 printf(lcd_putc, "\fUruchomienie\nco %02d h/%02d min", read_eeprom(EEPROM_AIR_HOUR_CYCLE), read_eeprom(EEPROM_AIR_MIN_DELAY)); 
1315:  MOVLW  07
1316:  BSF    03.6
1317:  MOVWF  0D
1318:  BSF    03.5
1319:  BCF    0C.7
131A:  BSF    0C.0
131B:  BCF    03.5
131C:  MOVF   0C,W
131D:  BCF    03.6
131E:  MOVWF  53
131F:  MOVLW  08
1320:  BSF    03.6
1321:  MOVWF  0D
1322:  BSF    03.5
1323:  BCF    0C.7
1324:  BSF    0C.0
1325:  BCF    03.5
1326:  MOVF   0C,W
1327:  BCF    03.6
1328:  MOVWF  54
1329:  MOVLW  0A
132A:  BSF    03.6
132B:  MOVWF  0D
132C:  MOVLW  01
132D:  MOVWF  0F
132E:  BCF    03.0
132F:  MOVLW  11
1330:  BCF    03.6
1331:  MOVWF  56
1332:  BCF    0A.4
1333:  CALL   67C
1334:  BSF    0A.4
1335:  MOVF   53,W
1336:  MOVWF  56
1337:  MOVLW  01
1338:  MOVWF  57
1339:  BCF    0A.4
133A:  CALL   6D3
133B:  BSF    0A.4
133C:  MOVLW  20
133D:  MOVWF  64
133E:  BCF    0A.4
133F:  CALL   33E
1340:  BSF    0A.4
1341:  MOVLW  68
1342:  MOVWF  64
1343:  BCF    0A.4
1344:  CALL   33E
1345:  BSF    0A.4
1346:  MOVLW  2F
1347:  MOVWF  64
1348:  BCF    0A.4
1349:  CALL   33E
134A:  BSF    0A.4
134B:  MOVF   54,W
134C:  MOVWF  56
134D:  MOVLW  01
134E:  MOVWF  57
134F:  BCF    0A.4
1350:  CALL   6D3
1351:  BSF    0A.4
1352:  MOVLW  18
1353:  BSF    03.6
1354:  MOVWF  0D
1355:  MOVLW  01
1356:  MOVWF  0F
1357:  BCF    03.0
1358:  MOVLW  04
1359:  BCF    03.6
135A:  MOVWF  56
135B:  BCF    0A.4
135C:  CALL   67C
135D:  BSF    0A.4
....................                 delay_ms(2000); 
135E:  MOVLW  08
135F:  MOVWF  53
1360:  MOVLW  FA
1361:  MOVWF  65
1362:  BCF    0A.4
1363:  CALL   183
1364:  BSF    0A.4
1365:  DECFSZ 53,F
1366:  GOTO   360
....................                 beep(); 
1367:  MOVLW  0A
1368:  MOVWF  57
1369:  BCF    0A.4
136A:  CALL   5DD
136B:  BSF    0A.4
....................                 beep(); 
136C:  MOVLW  0A
136D:  MOVWF  57
136E:  BCF    0A.4
136F:  CALL   5DD
1370:  BSF    0A.4
....................                 menu_select=false; 
1371:  BCF    2D.0
....................                 menu_pos=0; 
1372:  CLRF   2C
....................                 lcd_putc("\f"); 
1373:  MOVLW  1B
1374:  BSF    03.6
1375:  MOVWF  0D
1376:  MOVLW  01
1377:  MOVWF  0F
1378:  BCF    0A.4
1379:  BCF    03.6
137A:  CALL   362
137B:  BSF    0A.4
....................             } 
....................             break; 
137C:  GOTO   7C2
....................         case 5: 
....................             lcd_putc("\fKarmienie"); 
137D:  MOVLW  1C
137E:  BSF    03.6
137F:  MOVWF  0D
1380:  MOVLW  01
1381:  MOVWF  0F
1382:  BCF    0A.4
1383:  BCF    03.6
1384:  CALL   362
1385:  BSF    0A.4
....................             print_menubar(); 
1386:  BCF    0A.4
1387:  CALL   657
1388:  BSF    0A.4
....................             if (menu_select) { 
1389:  BTFSS  2D.0
138A:  GOTO   49E
....................                 last_feed_hour_on = 0; 
138B:  CLRF   34
....................                 write_eeprom(EEPROM_FEED_HOUR_CYCLE,menu_hour(read_eeprom(EEPROM_FEED_HOUR_CYCLE))); 
138C:  MOVLW  05
138D:  BSF    03.6
138E:  MOVWF  0D
138F:  BSF    03.5
1390:  BCF    0C.7
1391:  BSF    0C.0
1392:  BCF    03.5
1393:  MOVF   0C,W
1394:  BCF    03.6
1395:  MOVWF  53
1396:  MOVF   53,W
1397:  MOVWF  54
1398:  BCF    0A.4
1399:  CALL   751
139A:  BSF    0A.4
139B:  MOVF   78,W
139C:  MOVWF  53
139D:  MOVF   0B,W
139E:  MOVWF  77
139F:  BCF    0B.7
13A0:  MOVLW  05
13A1:  BSF    03.6
13A2:  MOVWF  0D
13A3:  BCF    03.6
13A4:  MOVF   53,W
13A5:  BSF    03.6
13A6:  MOVWF  0C
13A7:  BSF    03.5
13A8:  BCF    0C.7
13A9:  BSF    0C.2
13AA:  MOVLW  55
13AB:  MOVWF  0D
13AC:  MOVLW  AA
13AD:  MOVWF  0D
13AE:  BSF    0C.1
13AF:  BTFSC  0C.1
13B0:  GOTO   3AF
13B1:  BCF    0C.2
13B2:  MOVF   77,W
13B3:  BCF    03.5
13B4:  BCF    03.6
13B5:  IORWF  0B,F
....................                 write_eeprom(EEPROM_FEED_SEC_DELAY,menu_sec(read_eeprom(EEPROM_FEED_SEC_DELAY))); 
13B6:  MOVLW  06
13B7:  BSF    03.6
13B8:  MOVWF  0D
13B9:  BSF    03.5
13BA:  BCF    0C.7
13BB:  BSF    0C.0
13BC:  BCF    03.5
13BD:  MOVF   0C,W
13BE:  BCF    03.6
13BF:  MOVWF  53
13C0:  MOVF   53,W
13C1:  MOVWF  54
*
141E:  MOVF   78,W
141F:  MOVWF  53
1420:  MOVF   0B,W
1421:  MOVWF  77
1422:  BCF    0B.7
1423:  MOVLW  06
1424:  BSF    03.6
1425:  MOVWF  0D
1426:  BCF    03.6
1427:  MOVF   53,W
1428:  BSF    03.6
1429:  MOVWF  0C
142A:  BSF    03.5
142B:  BCF    0C.7
142C:  BSF    0C.2
142D:  MOVLW  55
142E:  MOVWF  0D
142F:  MOVLW  AA
1430:  MOVWF  0D
1431:  BSF    0C.1
1432:  BTFSC  0C.1
1433:  GOTO   432
1434:  BCF    0C.2
1435:  MOVF   77,W
1436:  BCF    03.5
1437:  BCF    03.6
1438:  IORWF  0B,F
....................                 printf(lcd_putc, "\fUruchomienie\nco %02d h/%02d s", read_eeprom(EEPROM_FEED_HOUR_CYCLE), read_eeprom(EEPROM_FEED_SEC_DELAY)); 
1439:  MOVLW  05
143A:  BSF    03.6
143B:  MOVWF  0D
143C:  BSF    03.5
143D:  BCF    0C.7
143E:  BSF    0C.0
143F:  BCF    03.5
1440:  MOVF   0C,W
1441:  BCF    03.6
1442:  MOVWF  53
1443:  MOVLW  06
1444:  BSF    03.6
1445:  MOVWF  0D
1446:  BSF    03.5
1447:  BCF    0C.7
1448:  BSF    0C.0
1449:  BCF    03.5
144A:  MOVF   0C,W
144B:  BCF    03.6
144C:  MOVWF  54
144D:  MOVLW  22
144E:  BSF    03.6
144F:  MOVWF  0D
1450:  MOVLW  01
1451:  MOVWF  0F
1452:  BCF    03.0
1453:  MOVLW  11
1454:  BCF    03.6
1455:  MOVWF  56
1456:  BCF    0A.4
1457:  CALL   67C
1458:  BSF    0A.4
1459:  MOVF   53,W
145A:  MOVWF  56
145B:  MOVLW  01
145C:  MOVWF  57
145D:  BCF    0A.4
145E:  CALL   6D3
145F:  BSF    0A.4
1460:  MOVLW  20
1461:  MOVWF  64
1462:  BCF    0A.4
1463:  CALL   33E
1464:  BSF    0A.4
1465:  MOVLW  68
1466:  MOVWF  64
1467:  BCF    0A.4
1468:  CALL   33E
1469:  BSF    0A.4
146A:  MOVLW  2F
146B:  MOVWF  64
146C:  BCF    0A.4
146D:  CALL   33E
146E:  BSF    0A.4
146F:  MOVF   54,W
1470:  MOVWF  56
1471:  MOVLW  01
1472:  MOVWF  57
1473:  BCF    0A.4
1474:  CALL   6D3
1475:  BSF    0A.4
1476:  MOVLW  20
1477:  MOVWF  64
1478:  BCF    0A.4
1479:  CALL   33E
147A:  BSF    0A.4
147B:  MOVLW  73
147C:  MOVWF  64
147D:  BCF    0A.4
147E:  CALL   33E
147F:  BSF    0A.4
....................                 delay_ms(2000); 
1480:  MOVLW  08
1481:  MOVWF  53
1482:  MOVLW  FA
1483:  MOVWF  65
1484:  BCF    0A.4
1485:  CALL   183
1486:  BSF    0A.4
1487:  DECFSZ 53,F
1488:  GOTO   482
....................                 beep(); 
1489:  MOVLW  0A
148A:  MOVWF  57
148B:  BCF    0A.4
148C:  CALL   5DD
148D:  BSF    0A.4
....................                 beep(); 
148E:  MOVLW  0A
148F:  MOVWF  57
1490:  BCF    0A.4
1491:  CALL   5DD
1492:  BSF    0A.4
....................                 menu_select=false; 
1493:  BCF    2D.0
....................                 menu_pos=0; 
1494:  CLRF   2C
....................                 lcd_putc("\f"); 
1495:  MOVLW  32
1496:  BSF    03.6
1497:  MOVWF  0D
1498:  MOVLW  01
1499:  MOVWF  0F
149A:  BCF    0A.4
149B:  BCF    03.6
149C:  CALL   362
149D:  BSF    0A.4
....................             } 
....................             break; 
149E:  GOTO   7C2
....................         case 6: 
....................             lcd_putc("\fZegar"); 
149F:  MOVLW  33
14A0:  BSF    03.6
14A1:  MOVWF  0D
14A2:  MOVLW  01
14A3:  MOVWF  0F
14A4:  BCF    0A.4
14A5:  BCF    03.6
14A6:  CALL   362
14A7:  BSF    0A.4
....................             print_menubar(); 
14A8:  BCF    0A.4
14A9:  CALL   657
14AA:  BSF    0A.4
....................             if (menu_select) { 
14AB:  BTFSS  2D.0
14AC:  GOTO   6E6
....................                 hour = menu_hour(hour); 
14AD:  MOVF   30,W
14AE:  MOVWF  54
14AF:  BCF    0A.4
14B0:  CALL   751
14B1:  BSF    0A.4
14B2:  MOVF   78,W
14B3:  MOVWF  30
....................                 min = menu_minute(min); 
14B4:  MOVF   2F,W
14B5:  MOVWF  54
*
1512:  MOVF   78,W
1513:  MOVWF  2F
....................                 printf(lcd_putc, "\fUstawiono %02d:%02d", hour,min); 
1514:  MOVLW  37
1515:  BSF    03.6
1516:  MOVWF  0D
1517:  MOVLW  01
1518:  MOVWF  0F
1519:  BCF    03.0
151A:  MOVLW  0B
151B:  BCF    03.6
151C:  MOVWF  56
151D:  BCF    0A.4
151E:  CALL   67C
151F:  BSF    0A.4
1520:  MOVF   30,W
1521:  MOVWF  56
1522:  MOVLW  01
1523:  MOVWF  57
1524:  BCF    0A.4
1525:  CALL   6D3
1526:  BSF    0A.4
1527:  MOVLW  3A
1528:  MOVWF  64
1529:  BCF    0A.4
152A:  CALL   33E
152B:  BSF    0A.4
152C:  MOVF   2F,W
152D:  MOVWF  56
152E:  MOVLW  01
152F:  MOVWF  57
1530:  BCF    0A.4
1531:  CALL   6D3
1532:  BSF    0A.4
....................                 //zapis 
....................                 set_time(); 
....................                 delay_ms(3000); 
*
16C8:  MOVLW  0C
16C9:  MOVWF  53
16CA:  MOVLW  FA
16CB:  MOVWF  65
16CC:  BCF    0A.4
16CD:  CALL   183
16CE:  BSF    0A.4
16CF:  DECFSZ 53,F
16D0:  GOTO   6CA
....................                 beep(); 
16D1:  MOVLW  0A
16D2:  MOVWF  57
16D3:  BCF    0A.4
16D4:  CALL   5DD
16D5:  BSF    0A.4
....................                 beep(); 
16D6:  MOVLW  0A
16D7:  MOVWF  57
16D8:  BCF    0A.4
16D9:  CALL   5DD
16DA:  BSF    0A.4
....................                 menu_select=false; 
16DB:  BCF    2D.0
....................                 menu_pos=0; 
16DC:  CLRF   2C
....................                 lcd_putc("\f"); 
16DD:  MOVLW  42
16DE:  BSF    03.6
16DF:  MOVWF  0D
16E0:  MOVLW  01
16E1:  MOVWF  0F
16E2:  BCF    0A.4
16E3:  BCF    03.6
16E4:  CALL   362
16E5:  BSF    0A.4
....................             } 
....................             break;  
16E6:  GOTO   7C2
....................          case 7: 
....................             lcd_putc("\fTestuj"); 
16E7:  MOVLW  43
16E8:  BSF    03.6
16E9:  MOVWF  0D
16EA:  MOVLW  01
16EB:  MOVWF  0F
16EC:  BCF    0A.4
16ED:  BCF    03.6
16EE:  CALL   362
16EF:  BSF    0A.4
....................             print_menubar(); 
16F0:  BCF    0A.4
16F1:  CALL   657
16F2:  BSF    0A.4
....................             if (menu_select) { 
16F3:  BTFSS  2D.0
16F4:  GOTO   7C2
....................                 beep(); 
16F5:  MOVLW  0A
16F6:  MOVWF  57
16F7:  BCF    0A.4
16F8:  CALL   5DD
16F9:  BSF    0A.4
....................                 beep(); 
16FA:  MOVLW  0A
16FB:  MOVWF  57
16FC:  BCF    0A.4
16FD:  CALL   5DD
16FE:  BSF    0A.4
....................  
....................                    lcd_putc("\ftest:"); 
16FF:  MOVLW  47
1700:  BSF    03.6
1701:  MOVWF  0D
1702:  MOVLW  01
1703:  MOVWF  0F
1704:  BCF    0A.4
1705:  BCF    03.6
1706:  CALL   362
1707:  BSF    0A.4
....................  
....................                    //lampa 
....................                    lcd_gotoxy(6,1); 
1708:  MOVLW  06
1709:  MOVWF  65
170A:  MOVLW  01
170B:  MOVWF  66
170C:  BCF    0A.4
170D:  CALL   32C
170E:  BSF    0A.4
....................                    lcd_send_byte(1,0x0); 
170F:  MOVLW  01
1710:  MOVWF  69
1711:  CLRF   6A
1712:  BCF    0A.4
1713:  CALL   197
1714:  BSF    0A.4
....................                    ON(P_LIGHT); 
1715:  BCF    3E.1
1716:  MOVF   3E,W
1717:  BSF    03.5
1718:  MOVWF  07
1719:  BCF    03.5
171A:  BSF    07.1
....................                    delay_ms(2000); 
171B:  MOVLW  08
171C:  MOVWF  53
171D:  MOVLW  FA
171E:  MOVWF  65
171F:  BCF    0A.4
1720:  CALL   183
1721:  BSF    0A.4
1722:  DECFSZ 53,F
1723:  GOTO   71D
....................                    OFF(P_LIGHT); 
1724:  BCF    3E.1
1725:  MOVF   3E,W
1726:  BSF    03.5
1727:  MOVWF  07
1728:  BCF    03.5
1729:  BCF    07.1
....................                    delay_ms(3000); 
172A:  MOVLW  0C
172B:  MOVWF  53
172C:  MOVLW  FA
172D:  MOVWF  65
172E:  BCF    0A.4
172F:  CALL   183
1730:  BSF    0A.4
1731:  DECFSZ 53,F
1732:  GOTO   72C
....................                     
....................                    //grzalka 
....................                    lcd_gotoxy(6,1); 
1733:  MOVLW  06
1734:  MOVWF  65
1735:  MOVLW  01
1736:  MOVWF  66
1737:  BCF    0A.4
1738:  CALL   32C
1739:  BSF    0A.4
....................                    lcd_send_byte(1,0x1); 
173A:  MOVLW  01
173B:  MOVWF  69
173C:  MOVWF  6A
173D:  BCF    0A.4
173E:  CALL   197
173F:  BSF    0A.4
....................                    ON(P_LIGHT); 
1740:  BCF    3E.1
1741:  MOVF   3E,W
1742:  BSF    03.5
1743:  MOVWF  07
1744:  BCF    03.5
1745:  BSF    07.1
....................                    delay_ms(2000); 
1746:  MOVLW  08
1747:  MOVWF  53
1748:  MOVLW  FA
1749:  MOVWF  65
174A:  BCF    0A.4
174B:  CALL   183
174C:  BSF    0A.4
174D:  DECFSZ 53,F
174E:  GOTO   748
....................                    OFF(P_LIGHT); 
174F:  BCF    3E.1
1750:  MOVF   3E,W
1751:  BSF    03.5
1752:  MOVWF  07
1753:  BCF    03.5
1754:  BCF    07.1
....................                    delay_ms(3000); 
1755:  MOVLW  0C
1756:  MOVWF  53
1757:  MOVLW  FA
1758:  MOVWF  65
1759:  BCF    0A.4
175A:  CALL   183
175B:  BSF    0A.4
175C:  DECFSZ 53,F
175D:  GOTO   757
....................                  
....................                    //karmienie 
....................                    lcd_gotoxy(6,1); 
175E:  MOVLW  06
175F:  MOVWF  65
1760:  MOVLW  01
1761:  MOVWF  66
1762:  BCF    0A.4
1763:  CALL   32C
1764:  BSF    0A.4
....................                    lcd_send_byte(1,0x5); 
1765:  MOVLW  01
1766:  MOVWF  69
1767:  MOVLW  05
1768:  MOVWF  6A
1769:  BCF    0A.4
176A:  CALL   197
176B:  BSF    0A.4
....................                    ON(P_FEED); 
176C:  BCF    3E.3
176D:  MOVF   3E,W
176E:  BSF    03.5
176F:  MOVWF  07
1770:  BCF    03.5
1771:  BSF    07.3
....................                    delay_ms(2000); 
1772:  MOVLW  08
1773:  MOVWF  53
1774:  MOVLW  FA
1775:  MOVWF  65
1776:  BCF    0A.4
1777:  CALL   183
1778:  BSF    0A.4
1779:  DECFSZ 53,F
177A:  GOTO   774
....................                    OFF(P_FEED); 
177B:  BCF    3E.3
177C:  MOVF   3E,W
177D:  BSF    03.5
177E:  MOVWF  07
177F:  BCF    03.5
1780:  BCF    07.3
....................                    delay_ms(3000); 
1781:  MOVLW  0C
1782:  MOVWF  53
1783:  MOVLW  FA
1784:  MOVWF  65
1785:  BCF    0A.4
1786:  CALL   183
1787:  BSF    0A.4
1788:  DECFSZ 53,F
1789:  GOTO   783
....................  
....................                    //napowietrzanie 
....................                    lcd_gotoxy(6,1); 
178A:  MOVLW  06
178B:  MOVWF  65
178C:  MOVLW  01
178D:  MOVWF  66
178E:  BCF    0A.4
178F:  CALL   32C
1790:  BSF    0A.4
....................                    lcd_send_byte(1,0x7); 
1791:  MOVLW  01
1792:  MOVWF  69
1793:  MOVLW  07
1794:  MOVWF  6A
1795:  BCF    0A.4
1796:  CALL   197
1797:  BSF    0A.4
....................                    ON(P_AIR); 
1798:  BSF    03.5
1799:  BCF    08.0
179A:  BCF    03.5
179B:  BSF    08.0
....................                    delay_ms(2000); 
179C:  MOVLW  08
179D:  MOVWF  53
179E:  MOVLW  FA
179F:  MOVWF  65
17A0:  BCF    0A.4
17A1:  CALL   183
17A2:  BSF    0A.4
17A3:  DECFSZ 53,F
17A4:  GOTO   79E
....................                    OFF(P_AIR); 
17A5:  BSF    03.5
17A6:  BCF    08.0
17A7:  BCF    03.5
17A8:  BCF    08.0
....................                    delay_ms(3000); 
17A9:  MOVLW  0C
17AA:  MOVWF  53
17AB:  MOVLW  FA
17AC:  MOVWF  65
17AD:  BCF    0A.4
17AE:  CALL   183
17AF:  BSF    0A.4
17B0:  DECFSZ 53,F
17B1:  GOTO   7AB
....................                  
....................                 menu_select=false; 
17B2:  BCF    2D.0
....................                 menu_pos=0; 
17B3:  CLRF   2C
....................                 beep(); 
17B4:  MOVLW  0A
17B5:  MOVWF  57
17B6:  BCF    0A.4
17B7:  CALL   5DD
17B8:  BSF    0A.4
....................                 lcd_putc("\f"); 
17B9:  MOVLW  4B
17BA:  BSF    03.6
17BB:  MOVWF  0D
17BC:  MOVLW  01
17BD:  MOVWF  0F
17BE:  BCF    0A.4
17BF:  BCF    03.6
17C0:  CALL   362
17C1:  BSF    0A.4
....................             } 
....................             break; 
....................              
....................     } 
17C2:  BSF    0A.3
17C3:  BSF    0A.4
17C4:  GOTO   268 (RETURN)
.................... } 
....................  
....................  
....................  
....................  
....................  
.................... //////////////Interrupt procedure///////////////////////////////// 
.................... #INT_RTCC 
.................... clock_isr() {  
....................    restart_wdt(); 
*
014C:  CLRWDT
014D:  BCF    0B.2
014E:  BCF    0A.3
014F:  BCF    0A.4
0150:  GOTO   02B
.................... } 
....................  
.................... //////////////main program starts here////////////////////////// 
.................... void main() { 
*
1938:  MOVF   03,W
1939:  ANDLW  1F
193A:  MOVWF  03
193B:  MOVLW  03
193C:  MOVWF  2B
193D:  CLRF   2C
193E:  BCF    2D.0
193F:  CLRF   33
1940:  CLRF   34
1941:  CLRF   35
1942:  MOVLW  FF
1943:  MOVWF  3E
1944:  CLRF   49
1945:  CLRF   48
1946:  MOVLW  04
1947:  MOVWF  4A
1948:  BSF    03.5
1949:  BSF    1F.0
194A:  BSF    1F.1
194B:  BSF    1F.2
194C:  BCF    1F.3
194D:  MOVLW  07
194E:  MOVWF  1C
194F:  BCF    03.7
*
195B:  CLRF   4C
195C:  CLRF   4B
195D:  CLRF   4E
195E:  CLRF   4D
....................     
....................    int16 started_air = 0;   //w sekundach startu powietrza 
....................    int16 started_feed = 0;  //w sekundach startu karmienia 
....................  
....................    ON(P_LIGHT); 
195F:  BCF    3E.1
1960:  MOVF   3E,W
1961:  BSF    03.5
1962:  MOVWF  07
1963:  BCF    03.5
1964:  BSF    07.1
....................    ON(P_HEATER); 
1965:  BCF    3E.2
1966:  MOVF   3E,W
1967:  BSF    03.5
1968:  MOVWF  07
1969:  BCF    03.5
196A:  BSF    07.2
....................    ON(P_LCDLIGHT);       
196B:  BSF    03.5
196C:  BCF    08.2
196D:  BCF    03.5
196E:  BSF    08.2
....................     
....................    delay_ms(100); 
196F:  MOVLW  64
1970:  MOVWF  65
1971:  BCF    0A.4
1972:  BCF    0A.3
1973:  CALL   183
1974:  BSF    0A.4
1975:  BSF    0A.3
....................  
....................   //ustawienie watchdoga 
....................   setup_wdt(WDT_2304MS); 
1976:  MOVLW  0F
1977:  MOVWF  77
1978:  CLRF   01
1979:  MOVLW  81
197A:  MOVWF  04
197B:  BCF    03.7
197C:  MOVF   00,W
197D:  ANDLW  F0
197E:  IORLW  07
197F:  MOVWF  00
1980:  CLRWDT
1981:  MOVF   00,W
1982:  ANDLW  F7
1983:  BTFSC  77.3
1984:  ANDLW  F0
1985:  IORWF  77,W
1986:  MOVWF  00
....................  
....................   //ustawienie timera ktory zglasza sie watchdogowi 
....................    setup_timer_0( RTCC_INTERNAL | RTCC_DIV_256 ); 
1987:  BSF    03.5
1988:  MOVF   01,W
1989:  ANDLW  C0
198A:  IORLW  07
198B:  MOVWF  01
....................    set_timer0(0); 
198C:  BCF    03.5
198D:  CLRF   01
....................    enable_interrupts(INT_RTCC); 
198E:  BSF    0B.5
....................    enable_interrupts(GLOBAL); 
198F:  MOVLW  C0
1990:  IORWF  0B,F
....................     
....................  
....................    //ustawienia wejsc analogowych 
....................    //setup_adc( ADC_CLOCK_INTERNAL ); 
....................    setup_adc_ports(AN0_AN1_AN2_AN3_AN4);  
1991:  BSF    03.5
1992:  BCF    1F.0
1993:  BSF    1F.1
1994:  BCF    1F.2
1995:  BCF    1F.3
....................    setup_adc(ADC_CLOCK_DIV_64); 
1996:  BSF    1F.6
1997:  BCF    03.5
1998:  BCF    1F.6
1999:  BSF    1F.7
199A:  BSF    03.5
199B:  BSF    1F.7
199C:  BCF    03.5
199D:  BSF    1F.0
....................  
.................... /* 
....................    setup_ccp2(CCP_PWM);   // Configure CCP2 as a PWM  
....................    int16 mm=200; 
....................    long duty=10; 
....................    setup_timer_2(T2_DIV_BY_16, mm, 1);  
....................    set_pwm2_duty(duty);  
.................... */        
....................          
....................    //inicjalizacja wyswietlacza 
....................    delay_ms(700); 
199E:  MOVLW  04
199F:  MOVWF  53
19A0:  MOVLW  AF
19A1:  MOVWF  65
19A2:  BCF    0A.4
19A3:  BCF    0A.3
19A4:  CALL   183
19A5:  BSF    0A.4
19A6:  BSF    0A.3
19A7:  DECFSZ 53,F
19A8:  GOTO   1A0
....................    lcd_init(); 
19A9:  BCF    0A.4
19AA:  BCF    0A.3
19AB:  GOTO   283
19AC:  BSF    0A.4
19AD:  BSF    0A.3
....................   delay_ms(700); 
19AE:  MOVLW  04
19AF:  MOVWF  53
19B0:  MOVLW  AF
19B1:  MOVWF  65
19B2:  BCF    0A.4
19B3:  BCF    0A.3
19B4:  CALL   183
19B5:  BSF    0A.4
19B6:  BSF    0A.3
19B7:  DECFSZ 53,F
19B8:  GOTO   1B0
....................    //wyslanie do pamieci ekranu wlasnych znakow 
....................    lcd_init_custom_chars(); 
19B9:  BCF    0A.4
19BA:  BCF    0A.3
19BB:  GOTO   313
19BC:  BSF    0A.4
19BD:  BSF    0A.3
....................    //wyczyszczenie ekranu 
....................    delay_ms(300); 
19BE:  MOVLW  02
19BF:  MOVWF  53
19C0:  MOVLW  96
19C1:  MOVWF  65
19C2:  BCF    0A.4
19C3:  BCF    0A.3
19C4:  CALL   183
19C5:  BSF    0A.4
19C6:  BSF    0A.3
19C7:  DECFSZ 53,F
19C8:  GOTO   1C0
....................    lcd_putc("\fNoweEnergie.org\nv3.4");   
19C9:  MOVLW  51
19CA:  BSF    03.6
19CB:  MOVWF  0D
19CC:  MOVLW  01
19CD:  MOVWF  0F
19CE:  BCF    0A.4
19CF:  BCF    0A.3
19D0:  BCF    03.6
19D1:  CALL   362
19D2:  BSF    0A.4
19D3:  BSF    0A.3
....................   delay_ms(900); 
19D4:  MOVLW  04
19D5:  MOVWF  53
19D6:  MOVLW  E1
19D7:  MOVWF  65
19D8:  BCF    0A.4
19D9:  BCF    0A.3
19DA:  CALL   183
19DB:  BSF    0A.4
19DC:  BSF    0A.3
19DD:  DECFSZ 53,F
19DE:  GOTO   1D6
....................  
....................   //jesli ustawienia sa czyste (swiezo po zaprogramowaniu) wczytanie domyslnych danych 
....................   if( read_eeprom(0x00) == 255){ 
19DF:  BSF    03.6
19E0:  CLRF   0D
19E1:  BSF    03.5
19E2:  BCF    0C.7
19E3:  BSF    0C.0
19E4:  BCF    03.5
19E5:  MOVF   0C,W
19E6:  SUBLW  FF
19E7:  BTFSS  03.2
19E8:  GOTO   204
....................        lcd_putc("\fWczytanie\ndomyslnych ustawien");   
19E9:  MOVLW  5C
19EA:  MOVWF  0D
19EB:  MOVLW  01
19EC:  MOVWF  0F
19ED:  BCF    0A.4
19EE:  BCF    0A.3
19EF:  BCF    03.6
19F0:  CALL   362
19F1:  BSF    0A.4
19F2:  BSF    0A.3
....................        default_set(); 
19F3:  BCF    0A.4
19F4:  BCF    0A.3
19F5:  GOTO   3B8
19F6:  BSF    0A.4
19F7:  BSF    0A.3
....................        delay_ms(900); 
19F8:  MOVLW  04
19F9:  MOVWF  53
19FA:  MOVLW  E1
19FB:  MOVWF  65
19FC:  BCF    0A.4
19FD:  BCF    0A.3
19FE:  CALL   183
19FF:  BSF    0A.4
1A00:  BSF    0A.3
1A01:  DECFSZ 53,F
1A02:  GOTO   1FA
1A03:  BSF    03.6
....................    }    
....................  
....................  /* 
....................    int8 anr =0; 
....................    delay_ms(1000); 
....................    set_adc_channel(1); 
....................    delay_ms(1); 
....................    anr=read_ADC(); 
....................    if(anr < 10){ 
....................            printf(lcd_putc,"\fTryb testowy"); 
....................            while(1){ 
....................                    set_adc_channel(1); 
....................                    delay_ms(1); 
....................                    anr=read_ADC(); 
....................                    printf(lcd_putc,"\f A/D: %u",anr); 
....................                    delay_ms(1000); 
....................            } 
....................    } 
.................... */    
....................       
.................... // Find devices on the bus  
.................... numDev = 0; 
1A04:  BCF    03.6
1A05:  CLRF   35
.................... if ( DS1820_FindFirstDevice() ){ 
1A06:  BCF    0A.4
1A07:  BCF    0A.3
1A08:  CALL   5D8
1A09:  BSF    0A.4
1A0A:  BSF    0A.3
1A0B:  MOVF   78,F
1A0C:  BTFSC  03.2
1A0D:  GOTO   217
....................  do 
....................     { 
....................         //now_t_aqua = DS1820_GetTempFloat(); 
....................        numDev ++; 
1A0E:  INCF   35,F
....................     } 
....................     while ( DS1820_FindNextDevice() ); 
1A0F:  BCF    0A.4
1A10:  BCF    0A.3
1A11:  CALL   485
1A12:  BSF    0A.4
1A13:  BSF    0A.3
1A14:  MOVF   78,F
1A15:  BTFSS  03.2
1A16:  GOTO   20E
.................... } 
....................    if (numDev>0){ 
1A17:  MOVF   35,F
1A18:  BTFSC  03.2
1A19:  GOTO   226
....................            printf(lcd_putc,"\fTermometr\nzainstalowany.");  
1A1A:  MOVLW  6C
1A1B:  BSF    03.6
1A1C:  MOVWF  0D
1A1D:  MOVLW  01
1A1E:  MOVWF  0F
1A1F:  BCF    0A.4
1A20:  BCF    0A.3
1A21:  BCF    03.6
1A22:  CALL   362
1A23:  BSF    0A.4
1A24:  BSF    0A.3
....................    } 
1A25:  GOTO   231
....................    else { 
....................           printf(lcd_putc,"\fPodlacz\ntermometr!");  
1A26:  MOVLW  79
1A27:  BSF    03.6
1A28:  MOVWF  0D
1A29:  MOVLW  01
1A2A:  MOVWF  0F
1A2B:  BCF    0A.4
1A2C:  BCF    0A.3
1A2D:  BCF    03.6
1A2E:  CALL   362
1A2F:  BSF    0A.4
1A30:  BSF    0A.3
....................    } 
....................            
....................    delay_ms(1000);    
1A31:  MOVLW  04
1A32:  MOVWF  53
1A33:  MOVLW  FA
1A34:  MOVWF  65
1A35:  BCF    0A.4
1A36:  BCF    0A.3
1A37:  CALL   183
1A38:  BSF    0A.4
1A39:  BSF    0A.3
1A3A:  DECFSZ 53,F
1A3B:  GOTO   233
....................    printf(lcd_putc,"\f"); 
1A3C:  MOVLW  0C
1A3D:  MOVWF  64
1A3E:  BCF    0A.4
1A3F:  BCF    0A.3
1A40:  CALL   33E
1A41:  BSF    0A.4
1A42:  BSF    0A.3
....................  
....................  
.................... //wczytanie zapisanych ustawien z eeprom 
.................... LIGHT_HOUR_ON = read_eeprom(EEPROM_LIGHT_HOUR_ON); 
1A43:  MOVLW  01
1A44:  BSF    03.6
1A45:  MOVWF  0D
1A46:  BSF    03.5
1A47:  BCF    0C.7
1A48:  BSF    0C.0
1A49:  BCF    03.5
1A4A:  MOVF   0C,W
1A4B:  BCF    03.6
1A4C:  MOVWF  31
.................... LIGHT_HOUR_OFF = read_eeprom(EEPROM_LIGHT_HOUR_OFF); 
1A4D:  MOVLW  03
1A4E:  BSF    03.6
1A4F:  MOVWF  0D
1A50:  BSF    03.5
1A51:  BCF    0C.7
1A52:  BSF    0C.0
1A53:  BCF    03.5
1A54:  MOVF   0C,W
1A55:  BCF    03.6
1A56:  MOVWF  32
.................... //LIGHT_MIN_ON = read_eeprom(EEPROM_LIGHT_MIN_ON); 
.................... //LIGHT_MIN_OFF = read_eeprom(EEPROM_LIGHT_MIN_OFF); 
....................     
....................    while(true){ 
....................          
....................           
....................          
....................         //--klik w jakis button, wejscie w menu-- 
....................         //UWAGA: obsluga menu musi byc na poczatku petli,  
....................         //bo inaczej np. odczyty czasu by byly przedatowane  
....................         //(nie sa odczytywane przez czas pobytu w menu) 
....................          
....................         //menu_event = ReadResistometrMenu(ana); 
....................         menu_event = getButton(); 
1A57:  BCF    0A.4
1A58:  BCF    0A.3
1A59:  CALL   5EC
1A5A:  BSF    0A.4
1A5B:  BSF    0A.3
1A5C:  MOVF   78,W
1A5D:  MOVWF  2B
....................          
....................         //jesli poruszamy sie po menu 
....................         if (menu_event != E_IDLE) { 
1A5E:  MOVF   2B,W
1A5F:  SUBLW  03
1A60:  BTFSC  03.2
1A61:  GOTO   274
....................                 ON(P_LCDLIGHT); //zapal podswietlenie LCD 
1A62:  BSF    03.5
1A63:  BCF    08.2
1A64:  BCF    03.5
1A65:  BSF    08.2
....................                 change_menu();  //obsluga menu 
1A66:  BCF    0A.3
1A67:  GOTO   000
1A68:  BSF    0A.3
....................                 delay_ms(300); 
1A69:  MOVLW  02
1A6A:  MOVWF  53
1A6B:  MOVLW  96
1A6C:  MOVWF  65
1A6D:  BCF    0A.4
1A6E:  BCF    0A.3
1A6F:  CALL   183
1A70:  BSF    0A.4
1A71:  BSF    0A.3
1A72:  DECFSZ 53,F
1A73:  GOTO   26B
....................         } 
....................          
....................          
....................         //ODCZYT CZASU Z RTC 
....................         read_time(); 
1A74:  BCF    0A.4
1A75:  GOTO   14B
1A76:  BSF    0A.4
....................         delay_ms(50); 
1A77:  MOVLW  32
1A78:  MOVWF  65
1A79:  BCF    0A.4
1A7A:  BCF    0A.3
1A7B:  CALL   183
1A7C:  BSF    0A.4
1A7D:  BSF    0A.3
....................          
....................         //ODCZYT TEMPERATUR 
....................         //termometr wody 
....................         if (numDev>0){ 
1A7E:  MOVF   35,F
1A7F:  BTFSC  03.2
1A80:  GOTO   2A3
....................                if ( DS1820_FindFirstDevice() ){ 
1A81:  BCF    0A.4
1A82:  BCF    0A.3
1A83:  CALL   5D8
1A84:  BSF    0A.4
1A85:  BSF    0A.3
1A86:  MOVF   78,F
1A87:  BTFSC  03.2
1A88:  GOTO   2A3
....................                do 
....................                 { 
....................                  now_t_aqua = DS1820_GetTempFloat(); 
1A89:  BCF    0A.4
1A8A:  GOTO   1A7
1A8B:  BSF    0A.4
1A8C:  MOVF   7A,W
1A8D:  MOVWF  39
1A8E:  MOVF   79,W
1A8F:  MOVWF  38
1A90:  MOVF   78,W
1A91:  MOVWF  37
1A92:  MOVF   77,W
1A93:  MOVWF  36
....................                  } 
....................                 while ( DS1820_FindNextDevice() ); 
1A94:  BCF    0A.4
1A95:  BCF    0A.3
1A96:  CALL   485
1A97:  BSF    0A.4
1A98:  BSF    0A.3
1A99:  MOVF   78,F
1A9A:  BTFSS  03.2
1A9B:  GOTO   289
....................                 delay_ms(50); 
1A9C:  MOVLW  32
1A9D:  MOVWF  65
1A9E:  BCF    0A.4
1A9F:  BCF    0A.3
1AA0:  CALL   183
1AA1:  BSF    0A.4
1AA2:  BSF    0A.3
....................                 } 
....................         } 
....................          
....................        
....................         //ODCZYT NASTAW TEMPERATUR 
....................         set_t = read_eeprom(0x00); 
1AA3:  BSF    03.6
1AA4:  CLRF   0D
1AA5:  BSF    03.5
1AA6:  BCF    0C.7
1AA7:  BSF    0C.0
1AA8:  BCF    03.5
1AA9:  MOVF   0C,W
1AAA:  BCF    03.6
1AAB:  CLRF   54
1AAC:  MOVWF  53
1AAD:  BCF    0A.4
1AAE:  BCF    0A.3
1AAF:  CALL   7E2
1AB0:  BSF    0A.4
1AB1:  BSF    0A.3
1AB2:  MOVF   7A,W
1AB3:  MOVWF  3D
1AB4:  MOVF   79,W
1AB5:  MOVWF  3C
1AB6:  MOVF   78,W
1AB7:  MOVWF  3B
1AB8:  MOVF   77,W
1AB9:  MOVWF  3A
....................         //jesli nie jest ustawiona to napewno nie jest 255stopni ustawienie domyslnej 25stopni 
....................         if (set_t == 255) set_t=25; 
1ABA:  MOVF   3D,W
1ABB:  MOVWF  5A
1ABC:  MOVF   3C,W
1ABD:  MOVWF  59
1ABE:  MOVF   3B,W
1ABF:  MOVWF  58
1AC0:  MOVF   3A,W
1AC1:  MOVWF  57
1AC2:  CLRF   5E
1AC3:  CLRF   5D
1AC4:  MOVLW  7F
1AC5:  MOVWF  5C
1AC6:  MOVLW  86
1AC7:  MOVWF  5B
1AC8:  BCF    0A.4
1AC9:  CALL   5B6
1ACA:  BSF    0A.4
1ACB:  BTFSS  03.2
1ACC:  GOTO   2D3
1ACD:  CLRF   3D
1ACE:  CLRF   3C
1ACF:  MOVLW  48
1AD0:  MOVWF  3B
1AD1:  MOVLW  83
1AD2:  MOVWF  3A
....................                  
....................         //---wyswietlenie biezacych informacji i wykonywanie biezacych zadan--- 
....................         if (menu_pos == 0){ 
1AD3:  MOVF   2C,F
1AD4:  BTFSS  03.2
1AD5:  GOTO   42D
....................  
....................             //wyswietlenie glownego ekranu kontrolnego 
....................             print_desktop(); 
1AD6:  GOTO   000
....................                                 
....................             //PODSWIETLANIE EKRANU 
....................             //od godziny 17:00 do 8:00 
....................             if ( hour > 17 || hour < 8){ 
1AD7:  MOVF   30,W
1AD8:  SUBLW  11
1AD9:  BTFSS  03.0
1ADA:  GOTO   2DF
1ADB:  MOVF   30,W
1ADC:  SUBLW  07
1ADD:  BTFSS  03.0
1ADE:  GOTO   2E4
....................                      ON(P_LCDLIGHT); //zapal podswietlenie LCD 
1ADF:  BSF    03.5
1AE0:  BCF    08.2
1AE1:  BCF    03.5
1AE2:  BSF    08.2
....................              } 
1AE3:  GOTO   2E8
....................              //w dzien wylaczony 
....................              else { 
....................                      OFF(P_LCDLIGHT); //wylacz podswietlenie LCD 
1AE4:  BSF    03.5
1AE5:  BCF    08.2
1AE6:  BCF    03.5
1AE7:  BCF    08.2
....................              } 
....................                      
....................             //GRZALKA 
....................             //jesli nie ma bledu odczytu 
....................            //BYLO: if (now_t_aqua != 1111.0 && numDev>0){ 
....................            if (now_t_aqua < 150 && numDev>0){ 
1AE8:  MOVF   39,W
1AE9:  MOVWF  5A
1AEA:  MOVF   38,W
1AEB:  MOVWF  59
1AEC:  MOVF   37,W
1AED:  MOVWF  58
1AEE:  MOVF   36,W
1AEF:  MOVWF  57
1AF0:  CLRF   5E
1AF1:  CLRF   5D
1AF2:  MOVLW  16
1AF3:  MOVWF  5C
1AF4:  MOVLW  86
1AF5:  MOVWF  5B
1AF6:  BCF    0A.4
1AF7:  CALL   5B6
1AF8:  BSF    0A.4
1AF9:  BTFSS  03.0
1AFA:  GOTO   335
1AFB:  MOVF   35,F
1AFC:  BTFSC  03.2
1AFD:  GOTO   335
....................                //jesli nastawiona jest wieksza od obecnej to wlacz grzalke 
....................                if (set_t > now_t_aqua){ 
1AFE:  MOVF   39,W
1AFF:  MOVWF  5A
1B00:  MOVF   38,W
1B01:  MOVWF  59
1B02:  MOVF   37,W
1B03:  MOVWF  58
1B04:  MOVF   36,W
1B05:  MOVWF  57
1B06:  MOVF   3D,W
1B07:  MOVWF  5E
1B08:  MOVF   3C,W
1B09:  MOVWF  5D
1B0A:  MOVF   3B,W
1B0B:  MOVWF  5C
1B0C:  MOVF   3A,W
1B0D:  MOVWF  5B
1B0E:  BCF    0A.4
1B0F:  CALL   5B6
1B10:  BSF    0A.4
1B11:  BTFSS  03.0
1B12:  GOTO   319
....................                         ON(P_HEATER); 
1B13:  BCF    3E.2
1B14:  MOVF   3E,W
1B15:  BSF    03.5
1B16:  MOVWF  07
1B17:  BCF    03.5
1B18:  BSF    07.2
....................                } 
....................                //jesli jest za wysoka to wylacz grzalke 
....................                if (set_t < now_t_aqua) { 
1B19:  MOVF   3D,W
1B1A:  MOVWF  5A
1B1B:  MOVF   3C,W
1B1C:  MOVWF  59
1B1D:  MOVF   3B,W
1B1E:  MOVWF  58
1B1F:  MOVF   3A,W
1B20:  MOVWF  57
1B21:  MOVF   39,W
1B22:  MOVWF  5E
1B23:  MOVF   38,W
1B24:  MOVWF  5D
1B25:  MOVF   37,W
1B26:  MOVWF  5C
1B27:  MOVF   36,W
1B28:  MOVWF  5B
1B29:  BCF    0A.4
1B2A:  CALL   5B6
1B2B:  BSF    0A.4
1B2C:  BTFSS  03.0
1B2D:  GOTO   334
....................                         OFF(P_HEATER); 
1B2E:  BCF    3E.2
1B2F:  MOVF   3E,W
1B30:  BSF    03.5
1B31:  MOVWF  07
1B32:  BCF    03.5
1B33:  BCF    07.2
....................                } 
....................             } 
1B34:  GOTO   33B
....................             //jesli jest blad odczytu 
....................             else { 
....................                         OFF(P_HEATER); 
1B35:  BCF    3E.2
1B36:  MOVF   3E,W
1B37:  BSF    03.5
1B38:  MOVWF  07
1B39:  BCF    03.5
1B3A:  BCF    07.2
....................             } 
....................  
....................              
....................             //INSTRUKCJE WYWOLANE ZEGAREM 
....................             //TODO: obawiam sie ze nie dziala np. ON18:00 OFF 3:00 
....................             //jesli czas wlaczenia oswietlenia 
....................             /* 
....................              if LIGHT_HOUR_ON <= hour){ 
....................                   if (LIGHT_MIN_ON) <= min){ 
....................                      ON(P_LIGHT); 
....................                     } 
....................              } 
....................              //jesli czas wylaczenia oswietlenia 
....................              if (LIGHT_HOUR_OFF <= hour){  
....................                    if(LIGHT_MIN_OFF <= min){ 
....................                        OFF(P_LIGHT); 
....................                     } 
....................              }*/ 
....................              if ( ( hour >= LIGHT_HOUR_ON ) && ( hour < LIGHT_HOUR_OFF )){ 
1B3B:  MOVF   31,W
1B3C:  SUBWF  30,W
1B3D:  BTFSS  03.0
1B3E:  GOTO   34A
1B3F:  MOVF   32,W
1B40:  SUBWF  30,W
1B41:  BTFSC  03.0
1B42:  GOTO   34A
....................                        ON(P_LIGHT); 
1B43:  BCF    3E.1
1B44:  MOVF   3E,W
1B45:  BSF    03.5
1B46:  MOVWF  07
1B47:  BCF    03.5
1B48:  BSF    07.1
....................              } 
1B49:  GOTO   350
....................              else { 
....................                        OFF(P_LIGHT); 
1B4A:  BCF    3E.1
1B4B:  MOVF   3E,W
1B4C:  BSF    03.5
1B4D:  MOVWF  07
1B4E:  BCF    03.5
1B4F:  BCF    07.1
....................               } 
....................               
....................              //jesli czas karmienia i oczywiscie jesli jest wlaczony w opcjach 
....................              if (read_eeprom(EEPROM_FEED_HOUR_CYCLE) != 0){ 
1B50:  MOVLW  05
1B51:  BSF    03.6
1B52:  MOVWF  0D
1B53:  BSF    03.5
1B54:  BCF    0C.7
1B55:  BSF    0C.0
1B56:  BCF    03.5
1B57:  MOVF   0C,W
1B58:  BTFSC  03.2
1B59:  GOTO   3D6
....................                 if (read_eeprom(EEPROM_FEED_HOUR_CYCLE) <= (hour - last_feed_hour_on)){ 
1B5A:  MOVLW  05
1B5B:  MOVWF  0D
1B5C:  BSF    03.5
1B5D:  BCF    0C.7
1B5E:  BSF    0C.0
1B5F:  BCF    03.5
1B60:  MOVF   0C,W
1B61:  BCF    03.6
1B62:  MOVWF  53
1B63:  MOVF   34,W
1B64:  SUBWF  30,W
1B65:  SUBWF  53,W
1B66:  BTFSC  03.2
1B67:  GOTO   36A
1B68:  BTFSC  03.0
1B69:  GOTO   3D5
....................                         ON(P_FEED);                                         
1B6A:  BCF    3E.3
1B6B:  MOVF   3E,W
1B6C:  BSF    03.5
1B6D:  MOVWF  07
1B6E:  BCF    03.5
1B6F:  BSF    07.3
....................                         //nie byl wystartowany to wystartowac wpisujac czas startu 
....................                         if (started_feed == 0){ 
1B70:  MOVF   4D,F
1B71:  BTFSS  03.2
1B72:  GOTO   397
1B73:  MOVF   4E,F
1B74:  BTFSS  03.2
1B75:  GOTO   397
....................                                 //wpisac czas w sekundach kiedy wystartowal 
....................                                 started_feed = ((hour * 3600) + (min * 60) + sec); 
1B76:  CLRF   54
1B77:  MOVF   30,W
1B78:  MOVWF  53
1B79:  MOVLW  0E
1B7A:  MOVWF  56
1B7B:  MOVLW  10
1B7C:  MOVWF  55
1B7D:  BCF    0A.3
1B7E:  CALL   7D1
1B7F:  BSF    0A.3
1B80:  MOVF   79,W
1B81:  MOVWF  54
1B82:  MOVF   78,W
1B83:  MOVWF  53
1B84:  MOVF   2F,W
1B85:  MOVWF  57
1B86:  MOVLW  3C
1B87:  MOVWF  58
1B88:  BCF    0A.4
1B89:  CALL   126
1B8A:  BSF    0A.4
1B8B:  MOVF   78,W
1B8C:  ADDWF  53,F
1B8D:  BTFSC  03.0
1B8E:  INCF   54,F
1B8F:  MOVF   2E,W
1B90:  ADDWF  53,W
1B91:  MOVWF  4D
1B92:  MOVF   54,W
1B93:  MOVWF  4E
1B94:  BTFSC  03.0
1B95:  INCF   4E,F
....................                         } 
1B96:  GOTO   3D5
....................                         //zostal wystartowany 
....................                         else { 
....................                                 //obliczenie roznicy sekund miedzy startem a teraz 
....................                                 int16 abso =  ((hour * 3600) + (min * 60) + sec) - started_feed;                                 
1B97:  CLRF   54
1B98:  MOVF   30,W
1B99:  MOVWF  53
1B9A:  MOVLW  0E
1B9B:  MOVWF  56
1B9C:  MOVLW  10
1B9D:  MOVWF  55
1B9E:  BCF    0A.3
1B9F:  CALL   7D1
1BA0:  BSF    0A.3
1BA1:  MOVF   79,W
1BA2:  MOVWF  54
1BA3:  MOVF   78,W
1BA4:  MOVWF  53
1BA5:  MOVF   2F,W
1BA6:  MOVWF  57
1BA7:  MOVLW  3C
1BA8:  MOVWF  58
1BA9:  BCF    0A.4
1BAA:  CALL   126
1BAB:  BSF    0A.4
1BAC:  MOVF   78,W
1BAD:  ADDWF  53,F
1BAE:  BTFSC  03.0
1BAF:  INCF   54,F
1BB0:  MOVF   2E,W
1BB1:  ADDWF  53,F
1BB2:  BTFSC  03.0
1BB3:  INCF   54,F
1BB4:  MOVF   4D,W
1BB5:  SUBWF  53,W
1BB6:  MOVWF  4F
1BB7:  MOVF   54,W
1BB8:  MOVWF  50
1BB9:  MOVF   4E,W
1BBA:  BTFSS  03.0
1BBB:  INCFSZ 4E,W
1BBC:  SUBWF  50,F
....................                                 //czas zakonczony 
....................                                 if ( read_eeprom(EEPROM_FEED_SEC_DELAY) < (int8)abso){ 
1BBD:  MOVLW  06
1BBE:  BSF    03.6
1BBF:  MOVWF  0D
1BC0:  BSF    03.5
1BC1:  BCF    0C.7
1BC2:  BSF    0C.0
1BC3:  BCF    03.5
1BC4:  MOVF   0C,W
1BC5:  BCF    03.6
1BC6:  SUBWF  4F,W
1BC7:  BTFSC  03.2
1BC8:  GOTO   3D5
1BC9:  BTFSS  03.0
1BCA:  GOTO   3D5
....................                                         OFF(P_FEED);    
1BCB:  BCF    3E.3
1BCC:  MOVF   3E,W
1BCD:  BSF    03.5
1BCE:  MOVWF  07
1BCF:  BCF    03.5
1BD0:  BCF    07.3
....................                                         started_feed = 0;  
1BD1:  CLRF   4E
1BD2:  CLRF   4D
....................                                         last_feed_hour_on = hour; 
1BD3:  MOVF   30,W
1BD4:  MOVWF  34
1BD5:  BSF    03.6
....................                                 } 
....................                         } 
....................  
....................  
....................                 } 
....................              } 
....................               
....................              //jesli czas wlaczenia napowietrzania i oczywiscie jesli jest wlaczony w opcjach 
....................              if (read_eeprom(EEPROM_AIR_HOUR_CYCLE) != 0){ 
1BD6:  MOVLW  07
1BD7:  MOVWF  0D
1BD8:  BSF    03.5
1BD9:  BCF    0C.7
1BDA:  BSF    0C.0
1BDB:  BCF    03.5
1BDC:  MOVF   0C,W
1BDD:  BTFSC  03.2
1BDE:  GOTO   42E
....................                 if (read_eeprom(EEPROM_AIR_HOUR_CYCLE) <= (hour - last_air_hour_on)){ 
1BDF:  MOVLW  07
1BE0:  MOVWF  0D
1BE1:  BSF    03.5
1BE2:  BCF    0C.7
1BE3:  BSF    0C.0
1BE4:  BCF    03.5
1BE5:  MOVF   0C,W
1BE6:  BCF    03.6
1BE7:  MOVWF  53
1BE8:  MOVF   33,W
1BE9:  SUBWF  30,W
1BEA:  SUBWF  53,W
1BEB:  BTFSC  03.2
1BEC:  GOTO   3EF
1BED:  BTFSC  03.0
1BEE:  GOTO   42D
....................                         ON(P_AIR);                                         
1BEF:  BSF    03.5
1BF0:  BCF    08.0
1BF1:  BCF    03.5
1BF2:  BSF    08.0
....................                         //nie byl wystartowany to wystartowac wpisujac czas startu 
....................                         if (started_air == 0){ 
1BF3:  MOVF   4B,F
1BF4:  BTFSS  03.2
1BF5:  GOTO   405
1BF6:  MOVF   4C,F
1BF7:  BTFSS  03.2
1BF8:  GOTO   405
....................                                 //wpisac czas w minutach kiedy wystartowal 
....................                                 started_air = ((hour * 60) + min); 
1BF9:  MOVF   30,W
1BFA:  MOVWF  57
1BFB:  MOVLW  3C
1BFC:  MOVWF  58
1BFD:  BCF    0A.4
1BFE:  CALL   126
1BFF:  BSF    0A.4
1C00:  MOVF   2F,W
1C01:  ADDWF  78,W
1C02:  MOVWF  4B
1C03:  CLRF   4C
....................                         } 
1C04:  GOTO   42D
....................                         //zostal wystartowany 
....................                         else { 
....................                                 //obliczenie roznicy minut miedzy startem a teraz 
....................                                 int16 abso =  ((hour * 60) + min) - started_air;                                        
1C05:  MOVF   30,W
1C06:  MOVWF  57
1C07:  MOVLW  3C
1C08:  MOVWF  58
1C09:  BCF    0A.4
1C0A:  CALL   126
1C0B:  BSF    0A.4
1C0C:  MOVF   2F,W
1C0D:  ADDWF  78,W
1C0E:  MOVWF  78
1C0F:  MOVF   4B,W
1C10:  SUBWF  78,W
1C11:  MOVWF  51
1C12:  CLRF   52
1C13:  MOVF   4C,W
1C14:  BTFSS  03.0
1C15:  INCFSZ 4C,W
1C16:  SUBWF  52,F
....................                                 //czas zakonczony 
....................                                 if ( read_eeprom(EEPROM_AIR_MIN_DELAY) < (int8)abso){ 
1C17:  MOVLW  08
1C18:  BSF    03.6
1C19:  MOVWF  0D
1C1A:  BSF    03.5
1C1B:  BCF    0C.7
1C1C:  BSF    0C.0
1C1D:  BCF    03.5
1C1E:  MOVF   0C,W
1C1F:  BCF    03.6
1C20:  SUBWF  51,W
1C21:  BTFSC  03.2
1C22:  GOTO   42D
1C23:  BTFSS  03.0
1C24:  GOTO   42D
....................                                         OFF(P_AIR);    
1C25:  BSF    03.5
1C26:  BCF    08.0
1C27:  BCF    03.5
1C28:  BCF    08.0
....................                                         started_air = 0;  
1C29:  CLRF   4C
1C2A:  CLRF   4B
....................                                         last_air_hour_on = hour; 
1C2B:  MOVF   30,W
1C2C:  MOVWF  33
1C2D:  BSF    03.6
....................                                 } 
....................                         } 
....................                  
....................                 } 
....................              } 
....................               
....................               
....................        } 
1C2E:  BCF    03.6
1C2F:  GOTO   257
....................    } 
....................  
.................... } 
1C30:  SLEEP

Configuration Fuses:
   Word  1: 3F36   HS WDT PUT NOBROWNOUT NOLVP NOCPD NOWRT NODEBUG NOPROTECT
